Archive member included to satisfy reference by file (symbol)

../driverlib/ccs/Debug/driverlib.lib(cpu.obj)
                              ./driverlib/interrupt.o (CPUbasepriGet)
../driverlib/ccs/Debug/driverlib.lib(sysctl.obj)
                              ./driverlib/eeprom.o (SysCtlDelay)
c:/ti/ccs1020/ccs/tools/compiler/gcc-arm-none-eabi-9-2019-q4-major/bin/../lib/gcc/arm-none-eabi/9.2.1/thumb/v7e-m/nofp\libgcc.a(_aeabi_ldivmod.o)
                              ./utils/ustdlib.o (__aeabi_ldivmod)
c:/ti/ccs1020/ccs/tools/compiler/gcc-arm-none-eabi-9-2019-q4-major/bin/../lib/gcc/arm-none-eabi/9.2.1/thumb/v7e-m/nofp\libgcc.a(_udivmoddi4.o)
                              c:/ti/ccs1020/ccs/tools/compiler/gcc-arm-none-eabi-9-2019-q4-major/bin/../lib/gcc/arm-none-eabi/9.2.1/thumb/v7e-m/nofp\libgcc.a(_aeabi_ldivmod.o) (__udivmoddi4)
c:/ti/ccs1020/ccs/tools/compiler/gcc-arm-none-eabi-9-2019-q4-major/bin/../lib/gcc/arm-none-eabi/9.2.1/thumb/v7e-m/nofp\libgcc.a(unwind-arm.o)
                              ./main.o (__aeabi_unwind_cpp_pr1)
c:/ti/ccs1020/ccs/tools/compiler/gcc-arm-none-eabi-9-2019-q4-major/bin/../lib/gcc/arm-none-eabi/9.2.1/thumb/v7e-m/nofp\libgcc.a(libunwind.o)
                              c:/ti/ccs1020/ccs/tools/compiler/gcc-arm-none-eabi-9-2019-q4-major/bin/../lib/gcc/arm-none-eabi/9.2.1/thumb/v7e-m/nofp\libgcc.a(unwind-arm.o) (restore_core_regs)
c:/ti/ccs1020/ccs/tools/compiler/gcc-arm-none-eabi-9-2019-q4-major/bin/../lib/gcc/arm-none-eabi/9.2.1/thumb/v7e-m/nofp\libgcc.a(pr-support.o)
                              c:/ti/ccs1020/ccs/tools/compiler/gcc-arm-none-eabi-9-2019-q4-major/bin/../lib/gcc/arm-none-eabi/9.2.1/thumb/v7e-m/nofp\libgcc.a(unwind-arm.o) (__gnu_unwind_execute)
c:/ti/ccs1020/ccs/tools/compiler/gcc-arm-none-eabi-9-2019-q4-major/bin/../lib/gcc/arm-none-eabi/9.2.1/thumb/v7e-m/nofp\libgcc.a(_dvmd_tls.o)
                              c:/ti/ccs1020/ccs/tools/compiler/gcc-arm-none-eabi-9-2019-q4-major/bin/../lib/gcc/arm-none-eabi/9.2.1/thumb/v7e-m/nofp\libgcc.a(_aeabi_ldivmod.o) (__aeabi_ldiv0)
c:/ti/ccs1020/ccs/tools/compiler/gcc-arm-none-eabi-9-2019-q4-major/bin/../lib/gcc/arm-none-eabi/9.2.1/../../../../arm-none-eabi/lib/thumb/v7e-m/nofp\libg.a(lib_a-abort.o)
                              c:/ti/ccs1020/ccs/tools/compiler/gcc-arm-none-eabi-9-2019-q4-major/bin/../lib/gcc/arm-none-eabi/9.2.1/thumb/v7e-m/nofp\libgcc.a(unwind-arm.o) (abort)
c:/ti/ccs1020/ccs/tools/compiler/gcc-arm-none-eabi-9-2019-q4-major/bin/../lib/gcc/arm-none-eabi/9.2.1/../../../../arm-none-eabi/lib/thumb/v7e-m/nofp\libg.a(lib_a-exit.o)
                              c:/ti/ccs1020/ccs/tools/compiler/gcc-arm-none-eabi-9-2019-q4-major/bin/../lib/gcc/arm-none-eabi/9.2.1/../../../../arm-none-eabi/lib/thumb/v7e-m/nofp/crt0.o (exit)
c:/ti/ccs1020/ccs/tools/compiler/gcc-arm-none-eabi-9-2019-q4-major/bin/../lib/gcc/arm-none-eabi/9.2.1/../../../../arm-none-eabi/lib/thumb/v7e-m/nofp\libg.a(lib_a-impure.o)
                              c:/ti/ccs1020/ccs/tools/compiler/gcc-arm-none-eabi-9-2019-q4-major/bin/../lib/gcc/arm-none-eabi/9.2.1/../../../../arm-none-eabi/lib/thumb/v7e-m/nofp\libg.a(lib_a-exit.o) (_global_impure_ptr)
c:/ti/ccs1020/ccs/tools/compiler/gcc-arm-none-eabi-9-2019-q4-major/bin/../lib/gcc/arm-none-eabi/9.2.1/../../../../arm-none-eabi/lib/thumb/v7e-m/nofp\libg.a(lib_a-init.o)
                              c:/ti/ccs1020/ccs/tools/compiler/gcc-arm-none-eabi-9-2019-q4-major/bin/../lib/gcc/arm-none-eabi/9.2.1/../../../../arm-none-eabi/lib/thumb/v7e-m/nofp/crt0.o (__libc_init_array)
c:/ti/ccs1020/ccs/tools/compiler/gcc-arm-none-eabi-9-2019-q4-major/bin/../lib/gcc/arm-none-eabi/9.2.1/../../../../arm-none-eabi/lib/thumb/v7e-m/nofp\libg.a(lib_a-memcpy.o)
                              c:/ti/ccs1020/ccs/tools/compiler/gcc-arm-none-eabi-9-2019-q4-major/bin/../lib/gcc/arm-none-eabi/9.2.1/thumb/v7e-m/nofp\libgcc.a(unwind-arm.o) (memcpy)
c:/ti/ccs1020/ccs/tools/compiler/gcc-arm-none-eabi-9-2019-q4-major/bin/../lib/gcc/arm-none-eabi/9.2.1/../../../../arm-none-eabi/lib/thumb/v7e-m/nofp\libg.a(lib_a-memset.o)
                              c:/ti/ccs1020/ccs/tools/compiler/gcc-arm-none-eabi-9-2019-q4-major/bin/../lib/gcc/arm-none-eabi/9.2.1/../../../../arm-none-eabi/lib/thumb/v7e-m/nofp/crt0.o (memset)
c:/ti/ccs1020/ccs/tools/compiler/gcc-arm-none-eabi-9-2019-q4-major/bin/../lib/gcc/arm-none-eabi/9.2.1/../../../../arm-none-eabi/lib/thumb/v7e-m/nofp\libg.a(lib_a-signal.o)
                              c:/ti/ccs1020/ccs/tools/compiler/gcc-arm-none-eabi-9-2019-q4-major/bin/../lib/gcc/arm-none-eabi/9.2.1/../../../../arm-none-eabi/lib/thumb/v7e-m/nofp\libg.a(lib_a-abort.o) (raise)
c:/ti/ccs1020/ccs/tools/compiler/gcc-arm-none-eabi-9-2019-q4-major/bin/../lib/gcc/arm-none-eabi/9.2.1/../../../../arm-none-eabi/lib/thumb/v7e-m/nofp\libg.a(lib_a-signalr.o)
                              c:/ti/ccs1020/ccs/tools/compiler/gcc-arm-none-eabi-9-2019-q4-major/bin/../lib/gcc/arm-none-eabi/9.2.1/../../../../arm-none-eabi/lib/thumb/v7e-m/nofp\libg.a(lib_a-signal.o) (_kill_r)
c:/ti/ccs1020/ccs/tools/compiler/gcc-arm-none-eabi-9-2019-q4-major/bin/../lib/gcc/arm-none-eabi/9.2.1/../../../../arm-none-eabi/lib/thumb/v7e-m/nofp\libg.a(lib_a-__call_atexit.o)
                              c:/ti/ccs1020/ccs/tools/compiler/gcc-arm-none-eabi-9-2019-q4-major/bin/../lib/gcc/arm-none-eabi/9.2.1/../../../../arm-none-eabi/lib/thumb/v7e-m/nofp\libg.a(lib_a-exit.o) (__call_exitprocs)
c:/ti/ccs1020/ccs/tools/compiler/gcc-arm-none-eabi-9-2019-q4-major/bin/../lib/gcc/arm-none-eabi/9.2.1/../../../../arm-none-eabi/lib/thumb/v7e-m/nofp\libg.a(lib_a-atexit.o)
                              c:/ti/ccs1020/ccs/tools/compiler/gcc-arm-none-eabi-9-2019-q4-major/bin/../lib/gcc/arm-none-eabi/9.2.1/../../../../arm-none-eabi/lib/thumb/v7e-m/nofp\libg.a(lib_a-__call_atexit.o) (atexit)
c:/ti/ccs1020/ccs/tools/compiler/gcc-arm-none-eabi-9-2019-q4-major/bin/../lib/gcc/arm-none-eabi/9.2.1/../../../../arm-none-eabi/lib/thumb/v7e-m/nofp\libg.a(lib_a-fini.o)
                              c:/ti/ccs1020/ccs/tools/compiler/gcc-arm-none-eabi-9-2019-q4-major/bin/../lib/gcc/arm-none-eabi/9.2.1/../../../../arm-none-eabi/lib/thumb/v7e-m/nofp\libg.a(lib_a-__call_atexit.o) (__libc_fini_array)
c:/ti/ccs1020/ccs/tools/compiler/gcc-arm-none-eabi-9-2019-q4-major/bin/../lib/gcc/arm-none-eabi/9.2.1/../../../../arm-none-eabi/lib/thumb/v7e-m/nofp\libg.a(lib_a-lock.o)
                              c:/ti/ccs1020/ccs/tools/compiler/gcc-arm-none-eabi-9-2019-q4-major/bin/../lib/gcc/arm-none-eabi/9.2.1/../../../../arm-none-eabi/lib/thumb/v7e-m/nofp\libg.a(lib_a-__call_atexit.o) (__retarget_lock_acquire_recursive)
c:/ti/ccs1020/ccs/tools/compiler/gcc-arm-none-eabi-9-2019-q4-major/bin/../lib/gcc/arm-none-eabi/9.2.1/../../../../arm-none-eabi/lib/thumb/v7e-m/nofp\libg.a(lib_a-mallocr.o)
                              c:/ti/ccs1020/ccs/tools/compiler/gcc-arm-none-eabi-9-2019-q4-major/bin/../lib/gcc/arm-none-eabi/9.2.1/../../../../arm-none-eabi/lib/thumb/v7e-m/nofp\libg.a(lib_a-signal.o) (_malloc_r)
c:/ti/ccs1020/ccs/tools/compiler/gcc-arm-none-eabi-9-2019-q4-major/bin/../lib/gcc/arm-none-eabi/9.2.1/../../../../arm-none-eabi/lib/thumb/v7e-m/nofp\libg.a(lib_a-mlock.o)
                              c:/ti/ccs1020/ccs/tools/compiler/gcc-arm-none-eabi-9-2019-q4-major/bin/../lib/gcc/arm-none-eabi/9.2.1/../../../../arm-none-eabi/lib/thumb/v7e-m/nofp\libg.a(lib_a-mallocr.o) (__malloc_lock)
c:/ti/ccs1020/ccs/tools/compiler/gcc-arm-none-eabi-9-2019-q4-major/bin/../lib/gcc/arm-none-eabi/9.2.1/../../../../arm-none-eabi/lib/thumb/v7e-m/nofp\libg.a(lib_a-reent.o)
                              c:/ti/ccs1020/ccs/tools/compiler/gcc-arm-none-eabi-9-2019-q4-major/bin/../lib/gcc/arm-none-eabi/9.2.1/../../../../arm-none-eabi/lib/thumb/v7e-m/nofp\libg.a(lib_a-signalr.o) (errno)
c:/ti/ccs1020/ccs/tools/compiler/gcc-arm-none-eabi-9-2019-q4-major/bin/../lib/gcc/arm-none-eabi/9.2.1/../../../../arm-none-eabi/lib/thumb/v7e-m/nofp\libg.a(lib_a-sbrkr.o)
                              c:/ti/ccs1020/ccs/tools/compiler/gcc-arm-none-eabi-9-2019-q4-major/bin/../lib/gcc/arm-none-eabi/9.2.1/../../../../arm-none-eabi/lib/thumb/v7e-m/nofp\libg.a(lib_a-mallocr.o) (_sbrk_r)
c:/ti/ccs1020/ccs/tools/compiler/gcc-arm-none-eabi-9-2019-q4-major/bin/../lib/gcc/arm-none-eabi/9.2.1/../../../../arm-none-eabi/lib/thumb/v7e-m/nofp\libg.a(lib_a-__atexit.o)
                              c:/ti/ccs1020/ccs/tools/compiler/gcc-arm-none-eabi-9-2019-q4-major/bin/../lib/gcc/arm-none-eabi/9.2.1/../../../../arm-none-eabi/lib/thumb/v7e-m/nofp\libg.a(lib_a-atexit.o) (__register_exitproc)
c:/ti/ccs1020/ccs/tools/compiler/gcc-arm-none-eabi-9-2019-q4-major/bin/../lib/gcc/arm-none-eabi/9.2.1/../../../../arm-none-eabi/lib/thumb/v7e-m/nofp\libg.a(lib_a-freer.o)
                              c:/ti/ccs1020/ccs/tools/compiler/gcc-arm-none-eabi-9-2019-q4-major/bin/../lib/gcc/arm-none-eabi/9.2.1/../../../../arm-none-eabi/lib/thumb/v7e-m/nofp\libg.a(lib_a-mallocr.o) (_free_r)
c:/ti/ccs1020/ccs/tools/compiler/gcc-arm-none-eabi-9-2019-q4-major/bin/../lib/gcc/arm-none-eabi/9.2.1/../../../../arm-none-eabi/lib/thumb/v7e-m/nofp\libnosys.a(getpid.o)
                              c:/ti/ccs1020/ccs/tools/compiler/gcc-arm-none-eabi-9-2019-q4-major/bin/../lib/gcc/arm-none-eabi/9.2.1/../../../../arm-none-eabi/lib/thumb/v7e-m/nofp\libg.a(lib_a-signalr.o) (_getpid)
c:/ti/ccs1020/ccs/tools/compiler/gcc-arm-none-eabi-9-2019-q4-major/bin/../lib/gcc/arm-none-eabi/9.2.1/../../../../arm-none-eabi/lib/thumb/v7e-m/nofp\libnosys.a(kill.o)
                              c:/ti/ccs1020/ccs/tools/compiler/gcc-arm-none-eabi-9-2019-q4-major/bin/../lib/gcc/arm-none-eabi/9.2.1/../../../../arm-none-eabi/lib/thumb/v7e-m/nofp\libg.a(lib_a-signalr.o) (_kill)
c:/ti/ccs1020/ccs/tools/compiler/gcc-arm-none-eabi-9-2019-q4-major/bin/../lib/gcc/arm-none-eabi/9.2.1/../../../../arm-none-eabi/lib/thumb/v7e-m/nofp\libnosys.a(sbrk.o)
                              c:/ti/ccs1020/ccs/tools/compiler/gcc-arm-none-eabi-9-2019-q4-major/bin/../lib/gcc/arm-none-eabi/9.2.1/../../../../arm-none-eabi/lib/thumb/v7e-m/nofp\libg.a(lib_a-sbrkr.o) (_sbrk)
c:/ti/ccs1020/ccs/tools/compiler/gcc-arm-none-eabi-9-2019-q4-major/bin/../lib/gcc/arm-none-eabi/9.2.1/../../../../arm-none-eabi/lib/thumb/v7e-m/nofp\libnosys.a(_exit.o)
                              c:/ti/ccs1020/ccs/tools/compiler/gcc-arm-none-eabi-9-2019-q4-major/bin/../lib/gcc/arm-none-eabi/9.2.1/../../../../arm-none-eabi/lib/thumb/v7e-m/nofp\libg.a(lib_a-abort.o) (_exit)

Allocating common symbols
Common symbol       size              file

__lock___atexit_recursive_mutex
                    0x1               c:/ti/ccs1020/ccs/tools/compiler/gcc-arm-none-eabi-9-2019-q4-major/bin/../lib/gcc/arm-none-eabi/9.2.1/../../../../arm-none-eabi/lib/thumb/v7e-m/nofp\libg.a(lib_a-lock.o)
__lock___arc4random_mutex
                    0x1               c:/ti/ccs1020/ccs/tools/compiler/gcc-arm-none-eabi-9-2019-q4-major/bin/../lib/gcc/arm-none-eabi/9.2.1/../../../../arm-none-eabi/lib/thumb/v7e-m/nofp\libg.a(lib_a-lock.o)
errno               0x4               c:/ti/ccs1020/ccs/tools/compiler/gcc-arm-none-eabi-9-2019-q4-major/bin/../lib/gcc/arm-none-eabi/9.2.1/../../../../arm-none-eabi/lib/thumb/v7e-m/nofp\libg.a(lib_a-reent.o)
__lock___env_recursive_mutex
                    0x1               c:/ti/ccs1020/ccs/tools/compiler/gcc-arm-none-eabi-9-2019-q4-major/bin/../lib/gcc/arm-none-eabi/9.2.1/../../../../arm-none-eabi/lib/thumb/v7e-m/nofp\libg.a(lib_a-lock.o)
__lock___sinit_recursive_mutex
                    0x1               c:/ti/ccs1020/ccs/tools/compiler/gcc-arm-none-eabi-9-2019-q4-major/bin/../lib/gcc/arm-none-eabi/9.2.1/../../../../arm-none-eabi/lib/thumb/v7e-m/nofp\libg.a(lib_a-lock.o)
__lock___malloc_recursive_mutex
                    0x1               c:/ti/ccs1020/ccs/tools/compiler/gcc-arm-none-eabi-9-2019-q4-major/bin/../lib/gcc/arm-none-eabi/9.2.1/../../../../arm-none-eabi/lib/thumb/v7e-m/nofp\libg.a(lib_a-lock.o)
__lock___at_quick_exit_mutex
                    0x1               c:/ti/ccs1020/ccs/tools/compiler/gcc-arm-none-eabi-9-2019-q4-major/bin/../lib/gcc/arm-none-eabi/9.2.1/../../../../arm-none-eabi/lib/thumb/v7e-m/nofp\libg.a(lib_a-lock.o)
__lock___dd_hash_mutex
                    0x1               c:/ti/ccs1020/ccs/tools/compiler/gcc-arm-none-eabi-9-2019-q4-major/bin/../lib/gcc/arm-none-eabi/9.2.1/../../../../arm-none-eabi/lib/thumb/v7e-m/nofp\libg.a(lib_a-lock.o)
__lock___tz_mutex   0x1               c:/ti/ccs1020/ccs/tools/compiler/gcc-arm-none-eabi-9-2019-q4-major/bin/../lib/gcc/arm-none-eabi/9.2.1/../../../../arm-none-eabi/lib/thumb/v7e-m/nofp\libg.a(lib_a-lock.o)
__lock___sfp_recursive_mutex
                    0x1               c:/ti/ccs1020/ccs/tools/compiler/gcc-arm-none-eabi-9-2019-q4-major/bin/../lib/gcc/arm-none-eabi/9.2.1/../../../../arm-none-eabi/lib/thumb/v7e-m/nofp\libg.a(lib_a-lock.o)

Discarded input sections

 __TI_DW.debug_info.$base_types.c8c38483d660372cd06395436475430b
                0x00000000       0x18 ../driverlib/ccs/Debug/driverlib.lib(cpu.obj)
 __TI_DW.debug_info.stdint.h.066348b889ca56249dcd34de01246954
                0x00000000       0x18 ../driverlib/ccs/Debug/driverlib.lib(cpu.obj)
 __TI_DW.debug_info.cpu.c.2c258bef3018e3b4a3c5a50564de3197
                0x00000000       0x18 ../driverlib/ccs/Debug/driverlib.lib(cpu.obj)
 __TI_DW.debug_info.sysctl.c.a265d9d1903ab544f4f3a947619a8ee7
                0x00000000       0x18 ../driverlib/ccs/Debug/driverlib.lib(sysctl.obj)
 __TI_DW.debug_info.$base_types.a3001db55c69772f4e2efd565078122a
                0x00000000       0x18 ../driverlib/ccs/Debug/driverlib.lib(sysctl.obj)
 __TI_DW.debug_info.stdint.h.066348b889ca56249dcd34de01246954
                0x00000000       0x18 ../driverlib/ccs/Debug/driverlib.lib(sysctl.obj)
 __TI_DW.debug_info.yvals.h.3104962cf0c0d1dd116d97cae467d0f3
                0x00000000       0x18 ../driverlib/ccs/Debug/driverlib.lib(sysctl.obj)
 __TI_DW.debug_info.stdarg.h.94a6efd7e0ac1e1539e5ef9b3dac1248
                0x00000000       0x18 ../driverlib/ccs/Debug/driverlib.lib(sysctl.obj)
 .debug_info    0x00000000      0x18b ../driverlib/ccs/Debug/driverlib.lib(sysctl.obj)
 .debug_line    0x00000000       0x69 ../driverlib/ccs/Debug/driverlib.lib(sysctl.obj)
 .debug_abbrev  0x00000000       0x35 ../driverlib/ccs/Debug/driverlib.lib(sysctl.obj)
 .debug_str     0x00000000      0x241 ../driverlib/ccs/Debug/driverlib.lib(sysctl.obj)
 .debug_pubtypes
                0x00000000      0x1c6 ../driverlib/ccs/Debug/driverlib.lib(sysctl.obj)

Memory Configuration

Name             Origin             Length             Attributes
FLASH            0x00000000         0x00100000         xr
SRAM             0x20000000         0x00040000         xw
*default*        0x00000000         0xffffffff

Linker script and memory map

LOAD c:/ti/ccs1020/ccs/tools/compiler/gcc-arm-none-eabi-9-2019-q4-major/bin/../lib/gcc/arm-none-eabi/9.2.1/thumb/v7e-m/nofp/crti.o
LOAD c:/ti/ccs1020/ccs/tools/compiler/gcc-arm-none-eabi-9-2019-q4-major/bin/../lib/gcc/arm-none-eabi/9.2.1/thumb/v7e-m/nofp/crtbegin.o
LOAD c:/ti/ccs1020/ccs/tools/compiler/gcc-arm-none-eabi-9-2019-q4-major/bin/../lib/gcc/arm-none-eabi/9.2.1/../../../../arm-none-eabi/lib/thumb/v7e-m/nofp/crt0.o
LOAD ./main.o
LOAD ./tm4c129encpdt_startup_ccs_gcc.o
LOAD ./driverlib/adc.o
LOAD ./driverlib/aes.o
LOAD ./driverlib/can.o
LOAD ./driverlib/comp.o
LOAD ./driverlib/cpu.o
LOAD ./driverlib/crc.o
LOAD ./driverlib/des.o
LOAD ./driverlib/eeprom.o
LOAD ./driverlib/emac.o
LOAD ./driverlib/flash.o
LOAD ./driverlib/fpu.o
LOAD ./driverlib/gpio.o
LOAD ./driverlib/hibernate.o
LOAD ./driverlib/i2c.o
LOAD ./driverlib/interrupt.o
LOAD ./driverlib/lcd.o
LOAD ./driverlib/mpu.o
LOAD ./driverlib/onewire.o
LOAD ./driverlib/pwm.o
LOAD ./driverlib/qei.o
LOAD ./driverlib/shamd5.o
LOAD ./driverlib/ssi.o
LOAD ./driverlib/sw_crc.o
LOAD ./driverlib/sysctl.o
LOAD ./driverlib/sysexc.o
LOAD ./driverlib/systick.o
LOAD ./driverlib/timer.o
LOAD ./driverlib/uart.o
LOAD ./driverlib/udma.o
LOAD ./driverlib/usb.o
LOAD ./driverlib/watchdog.o
LOAD ./utils/random.o
LOAD ./utils/uartstdio.o
LOAD ./utils/ustdlib.o
                0x00000000                PROVIDE (_intvecs_base_address = 0x0)

.intvecs        0x00000000      0x208
 *(.intvecs)
 .intvecs       0x00000000      0x208 ./tm4c129encpdt_startup_ccs_gcc.o
                0x00000000                g_pfnVectors
                0x20000000                PROVIDE (_vtable_base_address = 0x20000000)

.vtable
 *(.vtable)

.text           0x00000208     0x9d7c
 CREATE_OBJECT_SYMBOLS
 *(.text)
 .text          0x00000208        0x0 c:/ti/ccs1020/ccs/tools/compiler/gcc-arm-none-eabi-9-2019-q4-major/bin/../lib/gcc/arm-none-eabi/9.2.1/thumb/v7e-m/nofp/crti.o
 .text          0x00000208       0x40 c:/ti/ccs1020/ccs/tools/compiler/gcc-arm-none-eabi-9-2019-q4-major/bin/../lib/gcc/arm-none-eabi/9.2.1/thumb/v7e-m/nofp/crtbegin.o
 .text          0x00000248       0x74 c:/ti/ccs1020/ccs/tools/compiler/gcc-arm-none-eabi-9-2019-q4-major/bin/../lib/gcc/arm-none-eabi/9.2.1/../../../../arm-none-eabi/lib/thumb/v7e-m/nofp/crt0.o
                0x00000248                _start
                0x00000248                _mainCRTStartup
 .text          0x000002bc        0x0 ./main.o
 .text          0x000002bc        0x0 ./tm4c129encpdt_startup_ccs_gcc.o
 .text          0x000002bc        0x0 ./driverlib/adc.o
 .text          0x000002bc        0x0 ./driverlib/aes.o
 .text          0x000002bc        0x0 ./driverlib/can.o
 .text          0x000002bc        0x0 ./driverlib/comp.o
 .text          0x000002bc        0x0 ./driverlib/cpu.o
 .text          0x000002bc        0x0 ./driverlib/crc.o
 .text          0x000002bc        0x0 ./driverlib/des.o
 .text          0x000002bc        0x0 ./driverlib/eeprom.o
 .text          0x000002bc        0x0 ./driverlib/emac.o
 .text          0x000002bc        0x0 ./driverlib/flash.o
 .text          0x000002bc        0x0 ./driverlib/fpu.o
 .text          0x000002bc        0x0 ./driverlib/gpio.o
 .text          0x000002bc        0x0 ./driverlib/hibernate.o
 .text          0x000002bc        0x0 ./driverlib/i2c.o
 .text          0x000002bc        0x0 ./driverlib/interrupt.o
 .text          0x000002bc        0x0 ./driverlib/lcd.o
 .text          0x000002bc        0x0 ./driverlib/mpu.o
 .text          0x000002bc        0x0 ./driverlib/onewire.o
 .text          0x000002bc        0x0 ./driverlib/pwm.o
 .text          0x000002bc        0x0 ./driverlib/qei.o
 .text          0x000002bc        0x0 ./driverlib/shamd5.o
 .text          0x000002bc        0x0 ./driverlib/ssi.o
 .text          0x000002bc        0x0 ./driverlib/sw_crc.o
 .text          0x000002bc        0x0 ./driverlib/sysctl.o
 .text          0x000002bc        0x0 ./driverlib/sysexc.o
 .text          0x000002bc        0x0 ./driverlib/systick.o
 .text          0x000002bc        0x0 ./driverlib/timer.o
 .text          0x000002bc        0x0 ./driverlib/uart.o
 .text          0x000002bc        0x0 ./driverlib/udma.o
 .text          0x000002bc        0x0 ./driverlib/usb.o
 .text          0x000002bc        0x0 ./driverlib/watchdog.o
 .text          0x000002bc        0x0 ./utils/random.o
 .text          0x000002bc        0x0 ./utils/uartstdio.o
 .text          0x000002bc        0x0 ./utils/ustdlib.o
 .text          0x000002bc        0x0 ../driverlib/ccs/Debug/driverlib.lib(cpu.obj)
 .text          0x000002bc        0x0 ../driverlib/ccs/Debug/driverlib.lib(sysctl.obj)
 .text          0x000002bc       0xa0 c:/ti/ccs1020/ccs/tools/compiler/gcc-arm-none-eabi-9-2019-q4-major/bin/../lib/gcc/arm-none-eabi/9.2.1/thumb/v7e-m/nofp\libgcc.a(_aeabi_ldivmod.o)
                0x000002bc                __aeabi_ldivmod
 .text          0x0000035c      0x2c0 c:/ti/ccs1020/ccs/tools/compiler/gcc-arm-none-eabi-9-2019-q4-major/bin/../lib/gcc/arm-none-eabi/9.2.1/thumb/v7e-m/nofp\libgcc.a(_udivmoddi4.o)
                0x0000035c                __udivmoddi4
 .text          0x0000061c      0x9b8 c:/ti/ccs1020/ccs/tools/compiler/gcc-arm-none-eabi-9-2019-q4-major/bin/../lib/gcc/arm-none-eabi/9.2.1/thumb/v7e-m/nofp\libgcc.a(unwind-arm.o)
                0x000008c4                _Unwind_GetCFA
                0x000008c8                __gnu_Unwind_RaiseException
                0x00000928                __gnu_Unwind_ForcedUnwind
                0x0000093c                __gnu_Unwind_Resume
                0x00000980                __gnu_Unwind_Resume_or_Rethrow
                0x00000990                _Unwind_Complete
                0x00000994                _Unwind_DeleteException
                0x000009a0                _Unwind_VRS_Get
                0x000009e8                _Unwind_VRS_Set
                0x00000a30                __gnu_Unwind_Backtrace
                0x00000d50                __aeabi_unwind_cpp_pr0
                0x00000d54                __aeabi_unwind_cpp_pr1
                0x00000d58                __aeabi_unwind_cpp_pr2
                0x00000d5c                _Unwind_VRS_Pop
 .text          0x00000fd4      0x1ac c:/ti/ccs1020/ccs/tools/compiler/gcc-arm-none-eabi-9-2019-q4-major/bin/../lib/gcc/arm-none-eabi/9.2.1/thumb/v7e-m/nofp\libgcc.a(libunwind.o)
                0x00000fd4                __restore_core_regs
                0x00000fd4                restore_core_regs
                0x00000fec                __gnu_Unwind_Restore_VFP
                0x00000ff4                __gnu_Unwind_Save_VFP
                0x00000ffc                __gnu_Unwind_Restore_VFP_D
                0x00001004                __gnu_Unwind_Save_VFP_D
                0x0000100c                __gnu_Unwind_Restore_VFP_D_16_to_31
                0x00001014                __gnu_Unwind_Save_VFP_D_16_to_31
                0x0000101c                __gnu_Unwind_Restore_WMMXD
                0x00001060                __gnu_Unwind_Save_WMMXD
                0x000010a4                __gnu_Unwind_Restore_WMMXC
                0x000010b8                __gnu_Unwind_Save_WMMXC
                0x000010cc                ___Unwind_RaiseException
                0x000010cc                _Unwind_RaiseException
                0x000010f0                _Unwind_Resume
                0x000010f0                ___Unwind_Resume
                0x00001114                _Unwind_Resume_or_Rethrow
                0x00001114                ___Unwind_Resume_or_Rethrow
                0x00001138                _Unwind_ForcedUnwind
                0x00001138                ___Unwind_ForcedUnwind
                0x0000115c                ___Unwind_Backtrace
                0x0000115c                _Unwind_Backtrace
 .text          0x00001180      0x340 c:/ti/ccs1020/ccs/tools/compiler/gcc-arm-none-eabi-9-2019-q4-major/bin/../lib/gcc/arm-none-eabi/9.2.1/thumb/v7e-m/nofp\libgcc.a(pr-support.o)
                0x000011d8                __gnu_unwind_execute
                0x00001474                __gnu_unwind_frame
                0x000014a0                _Unwind_GetRegionStart
                0x000014ac                _Unwind_GetLanguageSpecificData
 .text          0x000014c0        0x4 c:/ti/ccs1020/ccs/tools/compiler/gcc-arm-none-eabi-9-2019-q4-major/bin/../lib/gcc/arm-none-eabi/9.2.1/thumb/v7e-m/nofp\libgcc.a(_dvmd_tls.o)
                0x000014c0                __aeabi_idiv0
                0x000014c0                __aeabi_ldiv0
 .text          0x000014c4        0x0 c:/ti/ccs1020/ccs/tools/compiler/gcc-arm-none-eabi-9-2019-q4-major/bin/../lib/gcc/arm-none-eabi/9.2.1/../../../../arm-none-eabi/lib/thumb/v7e-m/nofp\libg.a(lib_a-abort.o)
 .text          0x000014c4        0x0 c:/ti/ccs1020/ccs/tools/compiler/gcc-arm-none-eabi-9-2019-q4-major/bin/../lib/gcc/arm-none-eabi/9.2.1/../../../../arm-none-eabi/lib/thumb/v7e-m/nofp\libg.a(lib_a-exit.o)
 .text          0x000014c4        0x0 c:/ti/ccs1020/ccs/tools/compiler/gcc-arm-none-eabi-9-2019-q4-major/bin/../lib/gcc/arm-none-eabi/9.2.1/../../../../arm-none-eabi/lib/thumb/v7e-m/nofp\libg.a(lib_a-impure.o)
 .text          0x000014c4        0x0 c:/ti/ccs1020/ccs/tools/compiler/gcc-arm-none-eabi-9-2019-q4-major/bin/../lib/gcc/arm-none-eabi/9.2.1/../../../../arm-none-eabi/lib/thumb/v7e-m/nofp\libg.a(lib_a-init.o)
 .text          0x000014c4      0x134 c:/ti/ccs1020/ccs/tools/compiler/gcc-arm-none-eabi-9-2019-q4-major/bin/../lib/gcc/arm-none-eabi/9.2.1/../../../../arm-none-eabi/lib/thumb/v7e-m/nofp\libg.a(lib_a-memcpy.o)
                0x000014c4                memcpy
 .text          0x000015f8        0x0 c:/ti/ccs1020/ccs/tools/compiler/gcc-arm-none-eabi-9-2019-q4-major/bin/../lib/gcc/arm-none-eabi/9.2.1/../../../../arm-none-eabi/lib/thumb/v7e-m/nofp\libg.a(lib_a-memset.o)
 .text          0x000015f8        0x0 c:/ti/ccs1020/ccs/tools/compiler/gcc-arm-none-eabi-9-2019-q4-major/bin/../lib/gcc/arm-none-eabi/9.2.1/../../../../arm-none-eabi/lib/thumb/v7e-m/nofp\libg.a(lib_a-signal.o)
 .text          0x000015f8        0x0 c:/ti/ccs1020/ccs/tools/compiler/gcc-arm-none-eabi-9-2019-q4-major/bin/../lib/gcc/arm-none-eabi/9.2.1/../../../../arm-none-eabi/lib/thumb/v7e-m/nofp\libg.a(lib_a-signalr.o)
 .text          0x000015f8        0x0 c:/ti/ccs1020/ccs/tools/compiler/gcc-arm-none-eabi-9-2019-q4-major/bin/../lib/gcc/arm-none-eabi/9.2.1/../../../../arm-none-eabi/lib/thumb/v7e-m/nofp\libg.a(lib_a-__call_atexit.o)
 .text          0x000015f8        0x0 c:/ti/ccs1020/ccs/tools/compiler/gcc-arm-none-eabi-9-2019-q4-major/bin/../lib/gcc/arm-none-eabi/9.2.1/../../../../arm-none-eabi/lib/thumb/v7e-m/nofp\libg.a(lib_a-atexit.o)
 .text          0x000015f8        0x0 c:/ti/ccs1020/ccs/tools/compiler/gcc-arm-none-eabi-9-2019-q4-major/bin/../lib/gcc/arm-none-eabi/9.2.1/../../../../arm-none-eabi/lib/thumb/v7e-m/nofp\libg.a(lib_a-fini.o)
 .text          0x000015f8        0x0 c:/ti/ccs1020/ccs/tools/compiler/gcc-arm-none-eabi-9-2019-q4-major/bin/../lib/gcc/arm-none-eabi/9.2.1/../../../../arm-none-eabi/lib/thumb/v7e-m/nofp\libg.a(lib_a-lock.o)
 .text          0x000015f8        0x0 c:/ti/ccs1020/ccs/tools/compiler/gcc-arm-none-eabi-9-2019-q4-major/bin/../lib/gcc/arm-none-eabi/9.2.1/../../../../arm-none-eabi/lib/thumb/v7e-m/nofp\libg.a(lib_a-mallocr.o)
 .text          0x000015f8        0x0 c:/ti/ccs1020/ccs/tools/compiler/gcc-arm-none-eabi-9-2019-q4-major/bin/../lib/gcc/arm-none-eabi/9.2.1/../../../../arm-none-eabi/lib/thumb/v7e-m/nofp\libg.a(lib_a-mlock.o)
 .text          0x000015f8        0x0 c:/ti/ccs1020/ccs/tools/compiler/gcc-arm-none-eabi-9-2019-q4-major/bin/../lib/gcc/arm-none-eabi/9.2.1/../../../../arm-none-eabi/lib/thumb/v7e-m/nofp\libg.a(lib_a-reent.o)
 .text          0x000015f8        0x0 c:/ti/ccs1020/ccs/tools/compiler/gcc-arm-none-eabi-9-2019-q4-major/bin/../lib/gcc/arm-none-eabi/9.2.1/../../../../arm-none-eabi/lib/thumb/v7e-m/nofp\libg.a(lib_a-sbrkr.o)
 .text          0x000015f8        0x0 c:/ti/ccs1020/ccs/tools/compiler/gcc-arm-none-eabi-9-2019-q4-major/bin/../lib/gcc/arm-none-eabi/9.2.1/../../../../arm-none-eabi/lib/thumb/v7e-m/nofp\libg.a(lib_a-__atexit.o)
 .text          0x000015f8        0x0 c:/ti/ccs1020/ccs/tools/compiler/gcc-arm-none-eabi-9-2019-q4-major/bin/../lib/gcc/arm-none-eabi/9.2.1/../../../../arm-none-eabi/lib/thumb/v7e-m/nofp\libg.a(lib_a-freer.o)
 .text          0x000015f8        0x0 c:/ti/ccs1020/ccs/tools/compiler/gcc-arm-none-eabi-9-2019-q4-major/bin/../lib/gcc/arm-none-eabi/9.2.1/../../../../arm-none-eabi/lib/thumb/v7e-m/nofp\libnosys.a(getpid.o)
 .text          0x000015f8        0x0 c:/ti/ccs1020/ccs/tools/compiler/gcc-arm-none-eabi-9-2019-q4-major/bin/../lib/gcc/arm-none-eabi/9.2.1/../../../../arm-none-eabi/lib/thumb/v7e-m/nofp\libnosys.a(kill.o)
 .text          0x000015f8        0x0 c:/ti/ccs1020/ccs/tools/compiler/gcc-arm-none-eabi-9-2019-q4-major/bin/../lib/gcc/arm-none-eabi/9.2.1/../../../../arm-none-eabi/lib/thumb/v7e-m/nofp\libnosys.a(sbrk.o)
 .text          0x000015f8        0x0 c:/ti/ccs1020/ccs/tools/compiler/gcc-arm-none-eabi-9-2019-q4-major/bin/../lib/gcc/arm-none-eabi/9.2.1/../../../../arm-none-eabi/lib/thumb/v7e-m/nofp\libnosys.a(_exit.o)
 .text          0x000015f8        0x0 c:/ti/ccs1020/ccs/tools/compiler/gcc-arm-none-eabi-9-2019-q4-major/bin/../lib/gcc/arm-none-eabi/9.2.1/thumb/v7e-m/nofp/crtend.o
 .text          0x000015f8        0x0 c:/ti/ccs1020/ccs/tools/compiler/gcc-arm-none-eabi-9-2019-q4-major/bin/../lib/gcc/arm-none-eabi/9.2.1/thumb/v7e-m/nofp/crtn.o
 *(.text.*)
 .text.main     0x000015f8       0x20 ./main.o
                0x000015f8                main
 .text.NmiSR    0x00001618        0x2 ./tm4c129encpdt_startup_ccs_gcc.o
 .text.FaultISR
                0x0000161a        0x2 ./tm4c129encpdt_startup_ccs_gcc.o
 .text.IntDefaultHandler
                0x0000161c        0x2 ./tm4c129encpdt_startup_ccs_gcc.o
 *fill*         0x0000161e        0x2 
 .text.ResetISR
                0x00001620       0x50 ./tm4c129encpdt_startup_ccs_gcc.o
                0x00001620                ResetISR
 .text._ADCIntNumberGet
                0x00001670       0x58 ./driverlib/adc.o
 .text.ADCIntRegister
                0x000016c8       0x18 ./driverlib/adc.o
                0x000016c8                ADCIntRegister
 .text.ADCIntUnregister
                0x000016e0       0x14 ./driverlib/adc.o
                0x000016e0                ADCIntUnregister
 .text.ADCIntDisable
                0x000016f4        0xe ./driverlib/adc.o
                0x000016f4                ADCIntDisable
 .text.ADCIntEnable
                0x00001702       0x10 ./driverlib/adc.o
                0x00001702                ADCIntEnable
 .text.ADCIntStatus
                0x00001712       0x34 ./driverlib/adc.o
                0x00001712                ADCIntStatus
 .text.ADCIntClear
                0x00001746        0x8 ./driverlib/adc.o
                0x00001746                ADCIntClear
 .text.ADCSequenceEnable
                0x0000174e        0xc ./driverlib/adc.o
                0x0000174e                ADCSequenceEnable
 .text.ADCSequenceDisable
                0x0000175a        0xe ./driverlib/adc.o
                0x0000175a                ADCSequenceDisable
 .text.ADCSequenceConfigure
                0x00001768       0x4e ./driverlib/adc.o
                0x00001768                ADCSequenceConfigure
 .text.ADCSequenceStepConfigure
                0x000017b6       0x8c ./driverlib/adc.o
                0x000017b6                ADCSequenceStepConfigure
 .text.ADCSequenceOverflow
                0x00001842        0xa ./driverlib/adc.o
                0x00001842                ADCSequenceOverflow
 .text.ADCSequenceOverflowClear
                0x0000184c        0x8 ./driverlib/adc.o
                0x0000184c                ADCSequenceOverflowClear
 .text.ADCSequenceUnderflow
                0x00001854        0xa ./driverlib/adc.o
                0x00001854                ADCSequenceUnderflow
 .text.ADCSequenceUnderflowClear
                0x0000185e        0x8 ./driverlib/adc.o
                0x0000185e                ADCSequenceUnderflowClear
 .text.ADCSequenceDataGet
                0x00001866       0x20 ./driverlib/adc.o
                0x00001866                ADCSequenceDataGet
 .text.ADCProcessorTrigger
                0x00001886       0x1e ./driverlib/adc.o
                0x00001886                ADCProcessorTrigger
 .text.ADCSoftwareOversampleConfigure
                0x000018a4       0x30 ./driverlib/adc.o
                0x000018a4                ADCSoftwareOversampleConfigure
 .text.ADCSoftwareOversampleStepConfigure
                0x000018d4       0x84 ./driverlib/adc.o
                0x000018d4                ADCSoftwareOversampleStepConfigure
 .text.ADCSoftwareOversampleDataGet
                0x00001958       0x50 ./driverlib/adc.o
                0x00001958                ADCSoftwareOversampleDataGet
 .text.ADCHardwareOversampleConfigure
                0x000019a8       0x10 ./driverlib/adc.o
                0x000019a8                ADCHardwareOversampleConfigure
 .text.ADCComparatorConfigure
                0x000019b8        0xa ./driverlib/adc.o
                0x000019b8                ADCComparatorConfigure
 .text.ADCComparatorRegionSet
                0x000019c2        0xe ./driverlib/adc.o
                0x000019c2                ADCComparatorRegionSet
 .text.ADCComparatorReset
                0x000019d0       0x32 ./driverlib/adc.o
                0x000019d0                ADCComparatorReset
 .text.ADCComparatorIntDisable
                0x00001a02       0x10 ./driverlib/adc.o
                0x00001a02                ADCComparatorIntDisable
 .text.ADCComparatorIntEnable
                0x00001a12        0xe ./driverlib/adc.o
                0x00001a12                ADCComparatorIntEnable
 .text.ADCComparatorIntStatus
                0x00001a20        0x4 ./driverlib/adc.o
                0x00001a20                ADCComparatorIntStatus
 .text.ADCComparatorIntClear
                0x00001a24        0x4 ./driverlib/adc.o
                0x00001a24                ADCComparatorIntClear
 .text.ADCIntDisableEx
                0x00001a28        0xa ./driverlib/adc.o
                0x00001a28                ADCIntDisableEx
 .text.ADCIntEnableEx
                0x00001a32        0x8 ./driverlib/adc.o
                0x00001a32                ADCIntEnableEx
 .text.ADCIntStatusEx
                0x00001a3a       0x14 ./driverlib/adc.o
                0x00001a3a                ADCIntStatusEx
 .text.ADCIntClearEx
                0x00001a4e        0x4 ./driverlib/adc.o
                0x00001a4e                ADCIntClearEx
 .text.ADCReferenceSet
                0x00001a52        0xc ./driverlib/adc.o
                0x00001a52                ADCReferenceSet
 .text.ADCReferenceGet
                0x00001a5e        0x8 ./driverlib/adc.o
                0x00001a5e                ADCReferenceGet
 .text.ADCPhaseDelaySet
                0x00001a66        0x4 ./driverlib/adc.o
                0x00001a66                ADCPhaseDelaySet
 .text.ADCPhaseDelayGet
                0x00001a6a        0x4 ./driverlib/adc.o
                0x00001a6a                ADCPhaseDelayGet
 .text.ADCSequenceDMAEnable
                0x00001a6e        0xe ./driverlib/adc.o
                0x00001a6e                ADCSequenceDMAEnable
 .text.ADCSequenceDMADisable
                0x00001a7c       0x10 ./driverlib/adc.o
                0x00001a7c                ADCSequenceDMADisable
 .text.ADCBusy  0x00001a8c        0x8 ./driverlib/adc.o
                0x00001a8c                ADCBusy
 .text.ADCClockConfigSet
                0x00001a94       0x18 ./driverlib/adc.o
                0x00001a94                ADCClockConfigSet
 .text.ADCClockConfigGet
                0x00001aac       0x26 ./driverlib/adc.o
                0x00001aac                ADCClockConfigGet
 .text.AESReset
                0x00001ad2       0x18 ./driverlib/aes.o
                0x00001ad2                AESReset
 .text.AESConfigSet
                0x00001aea       0x10 ./driverlib/aes.o
                0x00001aea                AESConfigSet
 .text.AESKey1Set
                0x00001afa       0x2c ./driverlib/aes.o
                0x00001afa                AESKey1Set
 .text.AESKey2Set
                0x00001b26       0x2c ./driverlib/aes.o
                0x00001b26                AESKey2Set
 .text.AESKey3Set
                0x00001b52       0x12 ./driverlib/aes.o
                0x00001b52                AESKey3Set
 .text.AESIVSet
                0x00001b64       0x12 ./driverlib/aes.o
                0x00001b64                AESIVSet
 .text.AESIVRead
                0x00001b76       0x1a ./driverlib/aes.o
                0x00001b76                AESIVRead
 .text.AESTagRead
                0x00001b90       0x1a ./driverlib/aes.o
                0x00001b90                AESTagRead
 .text.AESLengthSet
                0x00001baa        0x6 ./driverlib/aes.o
                0x00001baa                AESLengthSet
 .text.AESAuthLengthSet
                0x00001bb0        0x4 ./driverlib/aes.o
                0x00001bb0                AESAuthLengthSet
 .text.AESDataReadNonBlocking
                0x00001bb4       0x20 ./driverlib/aes.o
                0x00001bb4                AESDataReadNonBlocking
 .text.AESDataRead
                0x00001bd4       0x1a ./driverlib/aes.o
                0x00001bd4                AESDataRead
 .text.AESDataWriteNonBlocking
                0x00001bee       0x20 ./driverlib/aes.o
                0x00001bee                AESDataWriteNonBlocking
 .text.AESDataWrite
                0x00001c0e       0x1a ./driverlib/aes.o
                0x00001c0e                AESDataWrite
 .text.AESDataProcess
                0x00001c28       0x44 ./driverlib/aes.o
                0x00001c28                AESDataProcess
 .text.AESDataAuth
                0x00001c6c       0x36 ./driverlib/aes.o
                0x00001c6c                AESDataAuth
 .text.AESDataProcessAuth
                0x00001ca2       0x68 ./driverlib/aes.o
                0x00001ca2                AESDataProcessAuth
 .text.AESIntStatus
                0x00001d0a       0x58 ./driverlib/aes.o
                0x00001d0a                AESIntStatus
 .text.AESIntEnable
                0x00001d62       0x34 ./driverlib/aes.o
                0x00001d62                AESIntEnable
 .text.AESIntDisable
                0x00001d96       0x38 ./driverlib/aes.o
                0x00001d96                AESIntDisable
 .text.AESIntClear
                0x00001dce       0x1e ./driverlib/aes.o
                0x00001dce                AESIntClear
 .text.AESIntRegister
                0x00001dec       0x10 ./driverlib/aes.o
                0x00001dec                AESIntRegister
 .text.AESIntUnregister
                0x00001dfc       0x10 ./driverlib/aes.o
                0x00001dfc                AESIntUnregister
 .text.AESDMAEnable
                0x00001e0c        0xc ./driverlib/aes.o
                0x00001e0c                AESDMAEnable
 .text.AESDMADisable
                0x00001e18        0xe ./driverlib/aes.o
                0x00001e18                AESDMADisable
 *fill*         0x00001e26        0x2 
 .text._CANIntNumberGet
                0x00001e28       0x68 ./driverlib/can.o
 .text._CANDataRegWrite
                0x00001e90       0x2c ./driverlib/can.o
 .text._CANDataRegRead
                0x00001ebc       0x2c ./driverlib/can.o
 .text.CANInit  0x00001ee8       0x4a ./driverlib/can.o
                0x00001ee8                CANInit
 .text.CANEnable
                0x00001f32        0xa ./driverlib/can.o
                0x00001f32                CANEnable
 .text.CANDisable
                0x00001f3c        0xa ./driverlib/can.o
                0x00001f3c                CANDisable
 .text.CANBitTimingGet
                0x00001f46       0x2e ./driverlib/can.o
                0x00001f46                CANBitTimingGet
 .text.CANBitRateSet
                0x00001f74       0x64 ./driverlib/can.o
                0x00001f74                CANBitRateSet
 .text.CANBitTimingSet
                0x00001fd8       0x56 ./driverlib/can.o
                0x00001fd8                CANBitTimingSet
 .text.CANIntRegister
                0x0000202e       0x18 ./driverlib/can.o
                0x0000202e                CANIntRegister
 .text.CANIntUnregister
                0x00002046       0x14 ./driverlib/can.o
                0x00002046                CANIntUnregister
 .text.CANIntEnable
                0x0000205a        0x8 ./driverlib/can.o
                0x0000205a                CANIntEnable
 .text.CANIntDisable
                0x00002062        0xa ./driverlib/can.o
                0x00002062                CANIntDisable
 .text.CANIntStatus
                0x0000206c       0x1e ./driverlib/can.o
                0x0000206c                CANIntStatus
 .text.CANIntClear
                0x0000208a       0x2a ./driverlib/can.o
                0x0000208a                CANIntClear
 .text.CANRetrySet
                0x000020b4       0x12 ./driverlib/can.o
                0x000020b4                CANRetrySet
 .text.CANRetryGet
                0x000020c6       0x10 ./driverlib/can.o
                0x000020c6                CANRetryGet
 .text.CANStatusGet
                0x000020d6       0x46 ./driverlib/can.o
                0x000020d6                CANStatusGet
 .text.CANErrCntrGet
                0x0000211c       0x1a ./driverlib/can.o
                0x0000211c                CANErrCntrGet
 .text.CANMessageSet
                0x00002136      0x18a ./driverlib/can.o
                0x00002136                CANMessageSet
 .text.CANMessageGet
                0x000022c0      0x170 ./driverlib/can.o
                0x000022c0                CANMessageGet
 .text.CANMessageClear
                0x00002430       0x1a ./driverlib/can.o
                0x00002430                CANMessageClear
 .text.ComparatorConfigure
                0x0000244a        0x8 ./driverlib/comp.o
                0x0000244a                ComparatorConfigure
 .text.ComparatorRefSet
                0x00002452        0x4 ./driverlib/comp.o
                0x00002452                ComparatorRefSet
 .text.ComparatorValueGet
                0x00002456       0x14 ./driverlib/comp.o
                0x00002456                ComparatorValueGet
 .text.ComparatorIntRegister
                0x0000246a       0x26 ./driverlib/comp.o
                0x0000246a                ComparatorIntRegister
 .text.ComparatorIntUnregister
                0x00002490       0x20 ./driverlib/comp.o
                0x00002490                ComparatorIntUnregister
 .text.ComparatorIntEnable
                0x000024b0        0xc ./driverlib/comp.o
                0x000024b0                ComparatorIntEnable
 .text.ComparatorIntDisable
                0x000024bc        0xe ./driverlib/comp.o
                0x000024bc                ComparatorIntDisable
 .text.ComparatorIntStatus
                0x000024ca       0x16 ./driverlib/comp.o
                0x000024ca                ComparatorIntStatus
 .text.ComparatorIntClear
                0x000024e0        0x8 ./driverlib/comp.o
                0x000024e0                ComparatorIntClear
 .text.CRCConfigSet
                0x000024e8        0x6 ./driverlib/crc.o
                0x000024e8                CRCConfigSet
 .text.CRCSeedSet
                0x000024ee        0x6 ./driverlib/crc.o
                0x000024ee                CRCSeedSet
 .text.CRCDataWrite
                0x000024f4        0x6 ./driverlib/crc.o
                0x000024f4                CRCDataWrite
 .text.CRCResultRead
                0x000024fa        0xe ./driverlib/crc.o
                0x000024fa                CRCResultRead
 .text.CRCDataProcess
                0x00002508       0x36 ./driverlib/crc.o
                0x00002508                CRCDataProcess
 .text.DESReset
                0x0000253e       0x12 ./driverlib/des.o
                0x0000253e                DESReset
 .text.DESConfigSet
                0x00002550        0xc ./driverlib/des.o
                0x00002550                DESConfigSet
 .text.DESKeySet
                0x0000255c       0x22 ./driverlib/des.o
                0x0000255c                DESKeySet
 .text.DESIVSet
                0x0000257e       0x16 ./driverlib/des.o
                0x0000257e                DESIVSet
 .text.DESLengthSet
                0x00002594        0x4 ./driverlib/des.o
                0x00002594                DESLengthSet
 .text.DESDataReadNonBlocking
                0x00002598       0x24 ./driverlib/des.o
                0x00002598                DESDataReadNonBlocking
 .text.DESDataRead
                0x000025bc       0x20 ./driverlib/des.o
                0x000025bc                DESDataRead
 .text.DESDataWriteNonBlocking
                0x000025dc       0x20 ./driverlib/des.o
                0x000025dc                DESDataWriteNonBlocking
 .text.DESDataWrite
                0x000025fc       0x1c ./driverlib/des.o
                0x000025fc                DESDataWrite
 .text.DESDataProcess
                0x00002618       0x4c ./driverlib/des.o
                0x00002618                DESDataProcess
 .text.DESIntStatus
                0x00002664       0x24 ./driverlib/des.o
                0x00002664                DESIntStatus
 .text.DESIntEnable
                0x00002688       0x22 ./driverlib/des.o
                0x00002688                DESIntEnable
 .text.DESIntDisable
                0x000026aa       0x26 ./driverlib/des.o
                0x000026aa                DESIntDisable
 .text.DESIntClear
                0x000026d0        0xe ./driverlib/des.o
                0x000026d0                DESIntClear
 .text.DESIntRegister
                0x000026de       0x10 ./driverlib/des.o
                0x000026de                DESIntRegister
 .text.DESIntUnregister
                0x000026ee       0x10 ./driverlib/des.o
                0x000026ee                DESIntUnregister
 .text.DESDMAEnable
                0x000026fe        0x8 ./driverlib/des.o
                0x000026fe                DESDMAEnable
 .text.DESDMADisable
                0x00002706        0xa ./driverlib/des.o
                0x00002706                DESDMADisable
 .text._EEPROMWaitForDone
                0x00002710       0x10 ./driverlib/eeprom.o
 .text._EEPROMSectorMaskSet
                0x00002720       0x3c ./driverlib/eeprom.o
 .text._EEPROMSectorMaskClear
                0x0000275c       0x34 ./driverlib/eeprom.o
 .text.EEPROMInit
                0x00002790       0x44 ./driverlib/eeprom.o
                0x00002790                EEPROMInit
 .text.EEPROMSizeGet
                0x000027d4       0x10 ./driverlib/eeprom.o
                0x000027d4                EEPROMSizeGet
 .text.EEPROMBlockCountGet
                0x000027e4       0x10 ./driverlib/eeprom.o
                0x000027e4                EEPROMBlockCountGet
 .text.EEPROMRead
                0x000027f4       0x44 ./driverlib/eeprom.o
                0x000027f4                EEPROMRead
 .text.EEPROMProgram
                0x00002838       0xd8 ./driverlib/eeprom.o
                0x00002838                EEPROMProgram
 .text.EEPROMProgramNonBlocking
                0x00002910       0x50 ./driverlib/eeprom.o
                0x00002910                EEPROMProgramNonBlocking
 .text.EEPROMMassErase
                0x00002960       0x5c ./driverlib/eeprom.o
                0x00002960                EEPROMMassErase
 .text.EEPROMBlockProtectGet
                0x000029bc       0x10 ./driverlib/eeprom.o
                0x000029bc                EEPROMBlockProtectGet
 .text.EEPROMBlockProtectSet
                0x000029cc       0x20 ./driverlib/eeprom.o
                0x000029cc                EEPROMBlockProtectSet
 .text.EEPROMBlockPasswordSet
                0x000029ec       0x34 ./driverlib/eeprom.o
                0x000029ec                EEPROMBlockPasswordSet
 .text.EEPROMBlockLock
                0x00002a20       0x14 ./driverlib/eeprom.o
                0x00002a20                EEPROMBlockLock
 .text.EEPROMBlockUnlock
                0x00002a34       0x34 ./driverlib/eeprom.o
                0x00002a34                EEPROMBlockUnlock
 .text.EEPROMBlockHide
                0x00002a68       0x10 ./driverlib/eeprom.o
                0x00002a68                EEPROMBlockHide
 .text.EEPROMIntEnable
                0x00002a78       0x20 ./driverlib/eeprom.o
                0x00002a78                EEPROMIntEnable
 .text.EEPROMIntDisable
                0x00002a98       0x20 ./driverlib/eeprom.o
                0x00002a98                EEPROMIntDisable
 .text.EEPROMIntStatus
                0x00002ab8       0x28 ./driverlib/eeprom.o
                0x00002ab8                EEPROMIntStatus
 .text.EEPROMIntClear
                0x00002ae0       0x3c ./driverlib/eeprom.o
                0x00002ae0                EEPROMIntClear
 .text.EEPROMStatusGet
                0x00002b1c        0xc ./driverlib/eeprom.o
                0x00002b1c                EEPROMStatusGet
 .text.EMACInit
                0x00002b28       0x88 ./driverlib/emac.o
                0x00002b28                EMACInit
 .text.EMACReset
                0x00002bb0       0x1a ./driverlib/emac.o
                0x00002bb0                EMACReset
 *fill*         0x00002bca        0x2 
 .text.EMACPHYConfigSet
                0x00002bcc       0x60 ./driverlib/emac.o
                0x00002bcc                EMACPHYConfigSet
 .text.EMACConfigSet
                0x00002c2c       0x34 ./driverlib/emac.o
                0x00002c2c                EMACConfigSet
 .text.EMACConfigGet
                0x00002c60       0x44 ./driverlib/emac.o
                0x00002c60                EMACConfigGet
 .text.EMACAddrSet
                0x00002ca4       0x3a ./driverlib/emac.o
                0x00002ca4                EMACAddrSet
 .text.EMACAddrGet
                0x00002cde       0x28 ./driverlib/emac.o
                0x00002cde                EMACAddrGet
 .text.EMACNumAddrGet
                0x00002d06        0x4 ./driverlib/emac.o
                0x00002d06                EMACNumAddrGet
 .text.EMACAddrFilterSet
                0x00002d0a       0x20 ./driverlib/emac.o
                0x00002d0a                EMACAddrFilterSet
 .text.EMACAddrFilterGet
                0x00002d2a        0xc ./driverlib/emac.o
                0x00002d2a                EMACAddrFilterGet
 .text.EMACFrameFilterSet
                0x00002d36       0x18 ./driverlib/emac.o
                0x00002d36                EMACFrameFilterSet
 *fill*         0x00002d4e        0x2 
 .text.EMACFrameFilterGet
                0x00002d50        0xc ./driverlib/emac.o
                0x00002d50                EMACFrameFilterGet
 .text.EMACHashFilterSet
                0x00002d5c        0x6 ./driverlib/emac.o
                0x00002d5c                EMACHashFilterSet
 .text.EMACHashFilterGet
                0x00002d62        0xa ./driverlib/emac.o
                0x00002d62                EMACHashFilterGet
 .text.EMACHashFilterBitCalculate
                0x00002d6c       0x28 ./driverlib/emac.o
                0x00002d6c                EMACHashFilterBitCalculate
 .text.EMACRxWatchdogTimerSet
                0x00002d94        0x6 ./driverlib/emac.o
                0x00002d94                EMACRxWatchdogTimerSet
 .text.EMACStatusGet
                0x00002d9a        0x4 ./driverlib/emac.o
                0x00002d9a                EMACStatusGet
 .text.EMACTxDMAPollDemand
                0x00002d9e        0x8 ./driverlib/emac.o
                0x00002d9e                EMACTxDMAPollDemand
 .text.EMACRxDMAPollDemand
                0x00002da6        0x8 ./driverlib/emac.o
                0x00002da6                EMACRxDMAPollDemand
 .text.EMACRxDMADescriptorListSet
                0x00002dae        0x6 ./driverlib/emac.o
                0x00002dae                EMACRxDMADescriptorListSet
 .text.EMACRxDMADescriptorListGet
                0x00002db4        0x6 ./driverlib/emac.o
                0x00002db4                EMACRxDMADescriptorListGet
 .text.EMACRxDMACurrentDescriptorGet
                0x00002dba        0x6 ./driverlib/emac.o
                0x00002dba                EMACRxDMACurrentDescriptorGet
 .text.EMACRxDMACurrentBufferGet
                0x00002dc0        0x6 ./driverlib/emac.o
                0x00002dc0                EMACRxDMACurrentBufferGet
 .text.EMACTxDMADescriptorListSet
                0x00002dc6        0x6 ./driverlib/emac.o
                0x00002dc6                EMACTxDMADescriptorListSet
 .text.EMACTxDMADescriptorListGet
                0x00002dcc        0x6 ./driverlib/emac.o
                0x00002dcc                EMACTxDMADescriptorListGet
 .text.EMACTxDMACurrentDescriptorGet
                0x00002dd2        0x6 ./driverlib/emac.o
                0x00002dd2                EMACTxDMACurrentDescriptorGet
 .text.EMACTxDMACurrentBufferGet
                0x00002dd8        0x6 ./driverlib/emac.o
                0x00002dd8                EMACTxDMACurrentBufferGet
 .text.EMACDMAStateGet
                0x00002dde       0x16 ./driverlib/emac.o
                0x00002dde                EMACDMAStateGet
 .text.EMACTxFlush
                0x00002df4       0x22 ./driverlib/emac.o
                0x00002df4                EMACTxFlush
 .text.EMACTxEnable
                0x00002e16       0x16 ./driverlib/emac.o
                0x00002e16                EMACTxEnable
 .text.EMACTxDisable
                0x00002e2c       0x16 ./driverlib/emac.o
                0x00002e2c                EMACTxDisable
 .text.EMACRxEnable
                0x00002e42       0x16 ./driverlib/emac.o
                0x00002e42                EMACRxEnable
 .text.EMACRxDisable
                0x00002e58       0x16 ./driverlib/emac.o
                0x00002e58                EMACRxDisable
 .text.EMACIntRegister
                0x00002e6e       0x10 ./driverlib/emac.o
                0x00002e6e                EMACIntRegister
 .text.EMACIntUnregister
                0x00002e7e       0x10 ./driverlib/emac.o
                0x00002e7e                EMACIntUnregister
 .text.EMACIntEnable
                0x00002e8e       0x3c ./driverlib/emac.o
                0x00002e8e                EMACIntEnable
 .text.EMACIntDisable
                0x00002eca       0x3c ./driverlib/emac.o
                0x00002eca                EMACIntDisable
 .text.EMACIntStatus
                0x00002f06       0x34 ./driverlib/emac.o
                0x00002f06                EMACIntStatus
 .text.EMACIntClear
                0x00002f3a       0x36 ./driverlib/emac.o
                0x00002f3a                EMACIntClear
 .text.EMACPHYWrite
                0x00002f70       0x30 ./driverlib/emac.o
                0x00002f70                EMACPHYWrite
 .text.EMACPHYRead
                0x00002fa0       0x34 ./driverlib/emac.o
                0x00002fa0                EMACPHYRead
 .text.EMACPHYExtendedRead
                0x00002fd4       0x3c ./driverlib/emac.o
                0x00002fd4                EMACPHYExtendedRead
 .text.EMACPHYExtendedWrite
                0x00003010       0x40 ./driverlib/emac.o
                0x00003010                EMACPHYExtendedWrite
 .text.EMACPHYPowerOff
                0x00003050       0x24 ./driverlib/emac.o
                0x00003050                EMACPHYPowerOff
 .text.EMACPHYPowerOn
                0x00003074       0x24 ./driverlib/emac.o
                0x00003074                EMACPHYPowerOn
 .text.EMACTimestampConfigSet
                0x00003098       0x18 ./driverlib/emac.o
                0x00003098                EMACTimestampConfigSet
 .text.EMACTimestampConfigGet
                0x000030b0        0xe ./driverlib/emac.o
                0x000030b0                EMACTimestampConfigGet
 .text.EMACTimestampEnable
                0x000030be       0x24 ./driverlib/emac.o
                0x000030be                EMACTimestampEnable
 .text.EMACTimestampDisable
                0x000030e2        0xe ./driverlib/emac.o
                0x000030e2                EMACTimestampDisable
 .text.EMACTimestampSysTimeSet
                0x000030f0       0x20 ./driverlib/emac.o
                0x000030f0                EMACTimestampSysTimeSet
 .text.EMACTimestampSysTimeGet
                0x00003110       0x1c ./driverlib/emac.o
                0x00003110                EMACTimestampSysTimeGet
 .text.EMACTimestampSysTimeUpdate
                0x0000312c       0x2c ./driverlib/emac.o
                0x0000312c                EMACTimestampSysTimeUpdate
 .text.EMACTimestampAddendSet
                0x00003158       0x1c ./driverlib/emac.o
                0x00003158                EMACTimestampAddendSet
 .text.EMACTimestampTargetSet
                0x00003174       0x18 ./driverlib/emac.o
                0x00003174                EMACTimestampTargetSet
 .text.EMACTimestampTargetIntEnable
                0x0000318c        0xe ./driverlib/emac.o
                0x0000318c                EMACTimestampTargetIntEnable
 .text.EMACTimestampTargetIntDisable
                0x0000319a        0xe ./driverlib/emac.o
                0x0000319a                EMACTimestampTargetIntDisable
 .text.EMACTimestampIntStatus
                0x000031a8        0x6 ./driverlib/emac.o
                0x000031a8                EMACTimestampIntStatus
 .text.EMACTimestampPPSSimpleModeSet
                0x000031ae       0x16 ./driverlib/emac.o
                0x000031ae                EMACTimestampPPSSimpleModeSet
 .text.EMACTimestampPPSCommandModeSet
                0x000031c4       0x14 ./driverlib/emac.o
                0x000031c4                EMACTimestampPPSCommandModeSet
 .text.EMACTimestampPPSCommand
                0x000031d8       0x14 ./driverlib/emac.o
                0x000031d8                EMACTimestampPPSCommand
 .text.EMACTimestampPPSPeriodSet
                0x000031ec        0xa ./driverlib/emac.o
                0x000031ec                EMACTimestampPPSPeriodSet
 .text.EMACVLANRxConfigSet
                0x000031f6        0x6 ./driverlib/emac.o
                0x000031f6                EMACVLANRxConfigSet
 .text.EMACVLANRxConfigGet
                0x000031fc        0xa ./driverlib/emac.o
                0x000031fc                EMACVLANRxConfigGet
 .text.EMACVLANTxConfigSet
                0x00003206        0x8 ./driverlib/emac.o
                0x00003206                EMACVLANTxConfigSet
 .text.EMACVLANTxConfigGet
                0x0000320e        0xc ./driverlib/emac.o
                0x0000320e                EMACVLANTxConfigGet
 .text.EMACVLANHashFilterBitCalculate
                0x0000321a       0x34 ./driverlib/emac.o
                0x0000321a                EMACVLANHashFilterBitCalculate
 .text.EMACVLANHashFilterSet
                0x0000324e        0x6 ./driverlib/emac.o
                0x0000324e                EMACVLANHashFilterSet
 .text.EMACVLANHashFilterGet
                0x00003254        0x6 ./driverlib/emac.o
                0x00003254                EMACVLANHashFilterGet
 .text.EMACRemoteWakeUpFrameFilterSet
                0x0000325a       0x1a ./driverlib/emac.o
                0x0000325a                EMACRemoteWakeUpFrameFilterSet
 .text.EMACRemoteWakeUpFrameFilterGet
                0x00003274       0x1a ./driverlib/emac.o
                0x00003274                EMACRemoteWakeUpFrameFilterGet
 .text.EMACPowerManagementControlSet
                0x0000328e       0x10 ./driverlib/emac.o
                0x0000328e                EMACPowerManagementControlSet
 .text.EMACPowerManagementControlGet
                0x0000329e        0xc ./driverlib/emac.o
                0x0000329e                EMACPowerManagementControlGet
 .text.EMACPowerManagementStatusGet
                0x000032aa        0x8 ./driverlib/emac.o
                0x000032aa                EMACPowerManagementStatusGet
 .text.EMACWoLEnter
                0x000032b2       0x32 ./driverlib/emac.o
                0x000032b2                EMACWoLEnter
 .text.EMACLPIConfig
                0x000032e4       0x28 ./driverlib/emac.o
                0x000032e4                EMACLPIConfig
 .text.EMACLPIEnter
                0x0000330c        0xa ./driverlib/emac.o
                0x0000330c                EMACLPIEnter
 .text.EMACLPIStatus
                0x00003316        0x6 ./driverlib/emac.o
                0x00003316                EMACLPIStatus
 .text.EMACLPILinkSet
                0x0000331c        0xa ./driverlib/emac.o
                0x0000331c                EMACLPILinkSet
 .text.EMACLPILinkClear
                0x00003326        0xa ./driverlib/emac.o
                0x00003326                EMACLPILinkClear
 .text.EMACPHYMMDWrite
                0x00003330       0x44 ./driverlib/emac.o
                0x00003330                EMACPHYMMDWrite
 .text.EMACPHYMMDRead
                0x00003374       0x3a ./driverlib/emac.o
                0x00003374                EMACPHYMMDRead
 *fill*         0x000033ae        0x2 
 .text.FlashErase
                0x000033b0       0x44 ./driverlib/flash.o
                0x000033b0                FlashErase
 .text.FlashProgram
                0x000033f4       0x78 ./driverlib/flash.o
                0x000033f4                FlashProgram
 .text.FlashProtectGet
                0x0000346c       0x48 ./driverlib/flash.o
                0x0000346c                FlashProtectGet
 .text.FlashProtectSet
                0x000034b4       0x80 ./driverlib/flash.o
                0x000034b4                FlashProtectSet
 .text.FlashProtectSave
                0x00003534       0x30 ./driverlib/flash.o
                0x00003534                FlashProtectSave
 .text.FlashUserGet
                0x00003564       0x18 ./driverlib/flash.o
                0x00003564                FlashUserGet
 .text.FlashUserSet
                0x0000357c       0x10 ./driverlib/flash.o
                0x0000357c                FlashUserSet
 .text.FlashAllUserRegisterGet
                0x0000358c       0x34 ./driverlib/flash.o
                0x0000358c                FlashAllUserRegisterGet
 .text.FlashAllUserRegisterSet
                0x000035c0       0x2c ./driverlib/flash.o
                0x000035c0                FlashAllUserRegisterSet
 .text.FlashUserSave
                0x000035ec       0x44 ./driverlib/flash.o
                0x000035ec                FlashUserSave
 .text.FlashAllUserRegisterSave
                0x00003630       0x34 ./driverlib/flash.o
                0x00003630                FlashAllUserRegisterSave
 .text.FlashIntRegister
                0x00003664       0x12 ./driverlib/flash.o
                0x00003664                FlashIntRegister
 .text.FlashIntUnregister
                0x00003676       0x10 ./driverlib/flash.o
                0x00003676                FlashIntUnregister
 *fill*         0x00003686        0x2 
 .text.FlashIntEnable
                0x00003688       0x10 ./driverlib/flash.o
                0x00003688                FlashIntEnable
 .text.FlashIntDisable
                0x00003698       0x10 ./driverlib/flash.o
                0x00003698                FlashIntDisable
 .text.FlashIntStatus
                0x000036a8       0x18 ./driverlib/flash.o
                0x000036a8                FlashIntStatus
 .text.FlashIntClear
                0x000036c0        0xc ./driverlib/flash.o
                0x000036c0                FlashIntClear
 .text.FPUEnable
                0x000036cc       0x10 ./driverlib/fpu.o
                0x000036cc                FPUEnable
 .text.FPUDisable
                0x000036dc       0x10 ./driverlib/fpu.o
                0x000036dc                FPUDisable
 .text.FPUStackingEnable
                0x000036ec       0x14 ./driverlib/fpu.o
                0x000036ec                FPUStackingEnable
 .text.FPULazyStackingEnable
                0x00003700       0x10 ./driverlib/fpu.o
                0x00003700                FPULazyStackingEnable
 .text.FPUStackingDisable
                0x00003710       0x10 ./driverlib/fpu.o
                0x00003710                FPUStackingDisable
 .text.FPUHalfPrecisionModeSet
                0x00003720       0x14 ./driverlib/fpu.o
                0x00003720                FPUHalfPrecisionModeSet
 .text.FPUNaNModeSet
                0x00003734       0x14 ./driverlib/fpu.o
                0x00003734                FPUNaNModeSet
 .text.FPUFlushToZeroModeSet
                0x00003748       0x14 ./driverlib/fpu.o
                0x00003748                FPUFlushToZeroModeSet
 .text.FPURoundingModeSet
                0x0000375c       0x14 ./driverlib/fpu.o
                0x0000375c                FPURoundingModeSet
 .text._GPIOIntNumberGet
                0x00003770       0x50 ./driverlib/gpio.o
 .text.GPIODirModeSet
                0x000037c0       0x36 ./driverlib/gpio.o
                0x000037c0                GPIODirModeSet
 .text.GPIODirModeGet
                0x000037f6       0x26 ./driverlib/gpio.o
                0x000037f6                GPIODirModeGet
 .text.GPIOIntTypeSet
                0x0000381c       0x6c ./driverlib/gpio.o
                0x0000381c                GPIOIntTypeSet
 .text.GPIOIntTypeGet
                0x00003888       0x4c ./driverlib/gpio.o
                0x00003888                GPIOIntTypeGet
 .text.GPIOPadConfigSet
                0x000038d4      0x17a ./driverlib/gpio.o
                0x000038d4                GPIOPadConfigSet
 .text.GPIOPadConfigGet
                0x00003a4e       0xc6 ./driverlib/gpio.o
                0x00003a4e                GPIOPadConfigGet
 .text.GPIOIntEnable
                0x00003b14        0xc ./driverlib/gpio.o
                0x00003b14                GPIOIntEnable
 .text.GPIOIntDisable
                0x00003b20        0xe ./driverlib/gpio.o
                0x00003b20                GPIOIntDisable
 .text.GPIOIntStatus
                0x00003b2e        0xe ./driverlib/gpio.o
                0x00003b2e                GPIOIntStatus
 .text.GPIOIntClear
                0x00003b3c        0x6 ./driverlib/gpio.o
                0x00003b3c                GPIOIntClear
 .text.GPIOIntRegister
                0x00003b42       0x18 ./driverlib/gpio.o
                0x00003b42                GPIOIntRegister
 .text.GPIOIntUnregister
                0x00003b5a       0x14 ./driverlib/gpio.o
                0x00003b5a                GPIOIntUnregister
 .text.GPIOIntRegisterPin
                0x00003b6e       0x1c ./driverlib/gpio.o
                0x00003b6e                GPIOIntRegisterPin
 .text.GPIOIntUnregisterPin
                0x00003b8a       0x18 ./driverlib/gpio.o
                0x00003b8a                GPIOIntUnregisterPin
 .text.GPIOPinRead
                0x00003ba2        0x6 ./driverlib/gpio.o
                0x00003ba2                GPIOPinRead
 .text.GPIOPinWrite
                0x00003ba8        0x6 ./driverlib/gpio.o
                0x00003ba8                GPIOPinWrite
 .text.GPIOPinTypeADC
                0x00003bae       0x1a ./driverlib/gpio.o
                0x00003bae                GPIOPinTypeADC
 .text.GPIOPinTypeCAN
                0x00003bc8       0x1a ./driverlib/gpio.o
                0x00003bc8                GPIOPinTypeCAN
 .text.GPIOPinTypeComparator
                0x00003be2       0x1a ./driverlib/gpio.o
                0x00003be2                GPIOPinTypeComparator
 .text.GPIOPinTypeComparatorOutput
                0x00003bfc       0x1a ./driverlib/gpio.o
                0x00003bfc                GPIOPinTypeComparatorOutput
 .text.GPIOPinTypeDIVSCLK
                0x00003c16       0x1a ./driverlib/gpio.o
                0x00003c16                GPIOPinTypeDIVSCLK
 .text.GPIOPinTypeEPI
                0x00003c30       0x1a ./driverlib/gpio.o
                0x00003c30                GPIOPinTypeEPI
 .text.GPIOPinTypeEthernetLED
                0x00003c4a       0x1a ./driverlib/gpio.o
                0x00003c4a                GPIOPinTypeEthernetLED
 .text.GPIOPinTypeEthernetMII
                0x00003c64       0x1a ./driverlib/gpio.o
                0x00003c64                GPIOPinTypeEthernetMII
 .text.GPIOPinTypeGPIOInput
                0x00003c7e       0x1a ./driverlib/gpio.o
                0x00003c7e                GPIOPinTypeGPIOInput
 .text.GPIOPinTypeGPIOOutput
                0x00003c98       0x1a ./driverlib/gpio.o
                0x00003c98                GPIOPinTypeGPIOOutput
 .text.GPIOPinTypeGPIOOutputOD
                0x00003cb2       0x1a ./driverlib/gpio.o
                0x00003cb2                GPIOPinTypeGPIOOutputOD
 .text.GPIOPinTypeHibernateRTCCLK
                0x00003ccc       0x1a ./driverlib/gpio.o
                0x00003ccc                GPIOPinTypeHibernateRTCCLK
 .text.GPIOPinTypeI2C
                0x00003ce6       0x1a ./driverlib/gpio.o
                0x00003ce6                GPIOPinTypeI2C
 .text.GPIOPinTypeI2CSCL
                0x00003d00       0x1a ./driverlib/gpio.o
                0x00003d00                GPIOPinTypeI2CSCL
 .text.GPIOPinTypeLCD
                0x00003d1a       0x1a ./driverlib/gpio.o
                0x00003d1a                GPIOPinTypeLCD
 .text.GPIOPinTypeOneWire
                0x00003d34       0x1a ./driverlib/gpio.o
                0x00003d34                GPIOPinTypeOneWire
 .text.GPIOPinTypePWM
                0x00003d4e       0x1a ./driverlib/gpio.o
                0x00003d4e                GPIOPinTypePWM
 .text.GPIOPinTypeQEI
                0x00003d68       0x1a ./driverlib/gpio.o
                0x00003d68                GPIOPinTypeQEI
 .text.GPIOPinTypeSSI
                0x00003d82       0x1a ./driverlib/gpio.o
                0x00003d82                GPIOPinTypeSSI
 .text.GPIOPinTypeTimer
                0x00003d9c       0x1a ./driverlib/gpio.o
                0x00003d9c                GPIOPinTypeTimer
 .text.GPIOPinTypeTrace
                0x00003db6       0x1a ./driverlib/gpio.o
                0x00003db6                GPIOPinTypeTrace
 .text.GPIOPinTypeUART
                0x00003dd0       0x1a ./driverlib/gpio.o
                0x00003dd0                GPIOPinTypeUART
 .text.GPIOPinTypeUSBAnalog
                0x00003dea       0x1a ./driverlib/gpio.o
                0x00003dea                GPIOPinTypeUSBAnalog
 .text.GPIOPinTypeUSBDigital
                0x00003e04       0x1a ./driverlib/gpio.o
                0x00003e04                GPIOPinTypeUSBDigital
 .text.GPIOPinTypeWakeHigh
                0x00003e1e       0x1c ./driverlib/gpio.o
                0x00003e1e                GPIOPinTypeWakeHigh
 .text.GPIOPinTypeWakeLow
                0x00003e3a       0x1c ./driverlib/gpio.o
                0x00003e3a                GPIOPinTypeWakeLow
 .text.GPIOPinWakeStatus
                0x00003e56        0x6 ./driverlib/gpio.o
                0x00003e56                GPIOPinWakeStatus
 .text.GPIOPinConfigure
                0x00003e5c       0x50 ./driverlib/gpio.o
                0x00003e5c                GPIOPinConfigure
 .text.GPIODMATriggerEnable
                0x00003eac        0xc ./driverlib/gpio.o
                0x00003eac                GPIODMATriggerEnable
 .text.GPIODMATriggerDisable
                0x00003eb8        0xe ./driverlib/gpio.o
                0x00003eb8                GPIODMATriggerDisable
 .text.GPIOADCTriggerEnable
                0x00003ec6        0xc ./driverlib/gpio.o
                0x00003ec6                GPIOADCTriggerEnable
 .text.GPIOADCTriggerDisable
                0x00003ed2        0xe ./driverlib/gpio.o
                0x00003ed2                GPIOADCTriggerDisable
 .text._HibernateWriteComplete
                0x00003ee0       0x10 ./driverlib/hibernate.o
 .text._HibernateIntNumberGet
                0x00003ef0       0x24 ./driverlib/hibernate.o
 .text._HibernateCalendarSet
                0x00003f14       0xe8 ./driverlib/hibernate.o
 .text.HibernateEnableExpClk
                0x00003ffc       0x18 ./driverlib/hibernate.o
                0x00003ffc                HibernateEnableExpClk
 .text.HibernateDisable
                0x00004014       0x18 ./driverlib/hibernate.o
                0x00004014                HibernateDisable
 .text.HibernateClockConfig
                0x0000402c       0x54 ./driverlib/hibernate.o
                0x0000402c                HibernateClockConfig
 .text.HibernateRTCEnable
                0x00004080       0x18 ./driverlib/hibernate.o
                0x00004080                HibernateRTCEnable
 .text.HibernateRTCDisable
                0x00004098       0x18 ./driverlib/hibernate.o
                0x00004098                HibernateRTCDisable
 .text.HibernateBatCheckStart
                0x000040b0       0x18 ./driverlib/hibernate.o
                0x000040b0                HibernateBatCheckStart
 .text.HibernateBatCheckDone
                0x000040c8       0x10 ./driverlib/hibernate.o
                0x000040c8                HibernateBatCheckDone
 .text.HibernateWakeSet
                0x000040d8       0x78 ./driverlib/hibernate.o
                0x000040d8                HibernateWakeSet
 .text.HibernateWakeGet
                0x00004150       0x40 ./driverlib/hibernate.o
                0x00004150                HibernateWakeGet
 .text.HibernateLowBatSet
                0x00004190       0x1c ./driverlib/hibernate.o
                0x00004190                HibernateLowBatSet
 .text.HibernateLowBatGet
                0x000041ac       0x18 ./driverlib/hibernate.o
                0x000041ac                HibernateLowBatGet
 .text.HibernateRTCSet
                0x000041c4       0x2c ./driverlib/hibernate.o
                0x000041c4                HibernateRTCSet
 .text.HibernateRTCGet
                0x000041f0        0xc ./driverlib/hibernate.o
                0x000041f0                HibernateRTCGet
 .text.HibernateRTCMatchSet
                0x000041fc       0x10 ./driverlib/hibernate.o
                0x000041fc                HibernateRTCMatchSet
 .text.HibernateRTCMatchGet
                0x0000420c        0xc ./driverlib/hibernate.o
                0x0000420c                HibernateRTCMatchGet
 .text.HibernateRTCSSMatchSet
                0x00004218       0x14 ./driverlib/hibernate.o
                0x00004218                HibernateRTCSSMatchSet
 .text.HibernateRTCSSMatchGet
                0x0000422c        0xc ./driverlib/hibernate.o
                0x0000422c                HibernateRTCSSMatchGet
 .text.HibernateRTCSSGet
                0x00004238       0x10 ./driverlib/hibernate.o
                0x00004238                HibernateRTCSSGet
 .text.HibernateRTCTrimSet
                0x00004248       0x10 ./driverlib/hibernate.o
                0x00004248                HibernateRTCTrimSet
 .text.HibernateRTCTrimGet
                0x00004258        0xc ./driverlib/hibernate.o
                0x00004258                HibernateRTCTrimGet
 .text.HibernateDataSet
                0x00004264       0x28 ./driverlib/hibernate.o
                0x00004264                HibernateDataSet
 .text.HibernateDataGet
                0x0000428c       0x1c ./driverlib/hibernate.o
                0x0000428c                HibernateDataGet
 .text.HibernateRequest
                0x000042a8       0x18 ./driverlib/hibernate.o
                0x000042a8                HibernateRequest
 .text.HibernateIntEnable
                0x000042c0       0x14 ./driverlib/hibernate.o
                0x000042c0                HibernateIntEnable
 .text.HibernateIntDisable
                0x000042d4       0x18 ./driverlib/hibernate.o
                0x000042d4                HibernateIntDisable
 .text.HibernateIntRegister
                0x000042ec       0x18 ./driverlib/hibernate.o
                0x000042ec                HibernateIntRegister
 .text.HibernateIntUnregister
                0x00004304       0x14 ./driverlib/hibernate.o
                0x00004304                HibernateIntUnregister
 .text.HibernateIntStatus
                0x00004318       0x18 ./driverlib/hibernate.o
                0x00004318                HibernateIntStatus
 .text.HibernateIntClear
                0x00004330       0x14 ./driverlib/hibernate.o
                0x00004330                HibernateIntClear
 .text.HibernateIsActive
                0x00004344       0x10 ./driverlib/hibernate.o
                0x00004344                HibernateIsActive
 .text.HibernateGPIORetentionEnable
                0x00004354       0x1c ./driverlib/hibernate.o
                0x00004354                HibernateGPIORetentionEnable
 .text.HibernateGPIORetentionDisable
                0x00004370       0x1c ./driverlib/hibernate.o
                0x00004370                HibernateGPIORetentionDisable
 .text.HibernateGPIORetentionGet
                0x0000438c       0x1c ./driverlib/hibernate.o
                0x0000438c                HibernateGPIORetentionGet
 .text.HibernateCounterMode
                0x000043a8       0x10 ./driverlib/hibernate.o
                0x000043a8                HibernateCounterMode
 .text.HibernateCalendarSet
                0x000043b8       0x10 ./driverlib/hibernate.o
                0x000043b8                HibernateCalendarSet
 .text.HibernateCalendarGet
                0x000043c8       0x80 ./driverlib/hibernate.o
                0x000043c8                HibernateCalendarGet
 .text.HibernateCalendarMatchSet
                0x00004448       0x10 ./driverlib/hibernate.o
                0x00004448                HibernateCalendarMatchSet
 .text.HibernateCalendarMatchGet
                0x00004458       0x7c ./driverlib/hibernate.o
                0x00004458                HibernateCalendarMatchGet
 .text.HibernateTamperEventsConfig
                0x000044d4       0x34 ./driverlib/hibernate.o
                0x000044d4                HibernateTamperEventsConfig
 .text.HibernateTamperEnable
                0x00004508       0x30 ./driverlib/hibernate.o
                0x00004508                HibernateTamperEnable
 .text.HibernateTamperDisable
                0x00004538       0x30 ./driverlib/hibernate.o
                0x00004538                HibernateTamperDisable
 .text.HibernateTamperIOEnable
                0x00004568       0x40 ./driverlib/hibernate.o
                0x00004568                HibernateTamperIOEnable
 .text.HibernateTamperIODisable
                0x000045a8       0x3c ./driverlib/hibernate.o
                0x000045a8                HibernateTamperIODisable
 .text.HibernateTamperEventsClear
                0x000045e4       0x30 ./driverlib/hibernate.o
                0x000045e4                HibernateTamperEventsClear
 .text.HibernateTamperEventsClearNoLock
                0x00004614       0x18 ./driverlib/hibernate.o
                0x00004614                HibernateTamperEventsClearNoLock
 .text.HibernateTamperUnLock
                0x0000462c       0x18 ./driverlib/hibernate.o
                0x0000462c                HibernateTamperUnLock
 .text.HibernateTamperLock
                0x00004644       0x18 ./driverlib/hibernate.o
                0x00004644                HibernateTamperLock
 .text.HibernateTamperStatusGet
                0x0000465c       0x3c ./driverlib/hibernate.o
                0x0000465c                HibernateTamperStatusGet
 .text.HibernateTamperEventsGet
                0x00004698       0x5c ./driverlib/hibernate.o
                0x00004698                HibernateTamperEventsGet
 .text.HibernateTamperExtOscRecover
                0x000046f4       0x30 ./driverlib/hibernate.o
                0x000046f4                HibernateTamperExtOscRecover
 .text.HibernateTamperExtOscValid
                0x00004724       0x14 ./driverlib/hibernate.o
                0x00004724                HibernateTamperExtOscValid
 .text._I2CIntNumberGet
                0x00004738       0x50 ./driverlib/i2c.o
 .text.I2CSlaveAddressSet
                0x00004788       0x18 ./driverlib/i2c.o
                0x00004788                I2CSlaveAddressSet
 .text.I2CMasterEnable
                0x000047a0        0xa ./driverlib/i2c.o
                0x000047a0                I2CMasterEnable
 *fill*         0x000047aa        0x2 
 .text.I2CMasterInitExpClk
                0x000047ac       0x58 ./driverlib/i2c.o
                0x000047ac                I2CMasterInitExpClk
 .text.I2CSlaveEnable
                0x00004804       0x10 ./driverlib/i2c.o
                0x00004804                I2CSlaveEnable
 .text.I2CSlaveInit
                0x00004814       0x10 ./driverlib/i2c.o
                0x00004814                I2CSlaveInit
 .text.I2CMasterDisable
                0x00004824        0xa ./driverlib/i2c.o
                0x00004824                I2CMasterDisable
 .text.I2CSlaveDisable
                0x0000482e       0x10 ./driverlib/i2c.o
                0x0000482e                I2CSlaveDisable
 .text.I2CIntRegister
                0x0000483e       0x18 ./driverlib/i2c.o
                0x0000483e                I2CIntRegister
 .text.I2CIntUnregister
                0x00004856       0x14 ./driverlib/i2c.o
                0x00004856                I2CIntUnregister
 .text.I2CMasterIntEnable
                0x0000486a        0x6 ./driverlib/i2c.o
                0x0000486a                I2CMasterIntEnable
 .text.I2CMasterIntEnableEx
                0x00004870        0x8 ./driverlib/i2c.o
                0x00004870                I2CMasterIntEnableEx
 .text.I2CSlaveIntEnable
                0x00004878        0xe ./driverlib/i2c.o
                0x00004878                I2CSlaveIntEnable
 .text.I2CSlaveIntEnableEx
                0x00004886        0xc ./driverlib/i2c.o
                0x00004886                I2CSlaveIntEnableEx
 .text.I2CMasterIntDisable
                0x00004892        0x6 ./driverlib/i2c.o
                0x00004892                I2CMasterIntDisable
 .text.I2CMasterIntDisableEx
                0x00004898        0xa ./driverlib/i2c.o
                0x00004898                I2CMasterIntDisableEx
 .text.I2CSlaveIntDisable
                0x000048a2        0xe ./driverlib/i2c.o
                0x000048a2                I2CSlaveIntDisable
 .text.I2CSlaveIntDisableEx
                0x000048b0        0xe ./driverlib/i2c.o
                0x000048b0                I2CSlaveIntDisableEx
 .text.I2CMasterIntStatus
                0x000048be       0x16 ./driverlib/i2c.o
                0x000048be                I2CMasterIntStatus
 .text.I2CMasterIntStatusEx
                0x000048d4        0xa ./driverlib/i2c.o
                0x000048d4                I2CMasterIntStatusEx
 .text.I2CSlaveIntStatus
                0x000048de       0x1a ./driverlib/i2c.o
                0x000048de                I2CSlaveIntStatus
 .text.I2CSlaveIntStatusEx
                0x000048f8        0xe ./driverlib/i2c.o
                0x000048f8                I2CSlaveIntStatusEx
 .text.I2CMasterIntClear
                0x00004906        0x8 ./driverlib/i2c.o
                0x00004906                I2CMasterIntClear
 .text.I2CMasterIntClearEx
                0x0000490e        0x4 ./driverlib/i2c.o
                0x0000490e                I2CMasterIntClearEx
 .text.I2CSlaveIntClear
                0x00004912        0x8 ./driverlib/i2c.o
                0x00004912                I2CSlaveIntClear
 .text.I2CSlaveIntClearEx
                0x0000491a        0x6 ./driverlib/i2c.o
                0x0000491a                I2CSlaveIntClearEx
 .text.I2CMasterSlaveAddrSet
                0x00004920        0x8 ./driverlib/i2c.o
                0x00004920                I2CMasterSlaveAddrSet
 .text.I2CMasterLineStateGet
                0x00004928        0x4 ./driverlib/i2c.o
                0x00004928                I2CMasterLineStateGet
 .text.I2CMasterBusy
                0x0000492c       0x10 ./driverlib/i2c.o
                0x0000492c                I2CMasterBusy
 .text.I2CMasterBusBusy
                0x0000493c       0x10 ./driverlib/i2c.o
                0x0000493c                I2CMasterBusBusy
 .text.I2CMasterControl
                0x0000494c        0x4 ./driverlib/i2c.o
                0x0000494c                I2CMasterControl
 .text.I2CMasterErr
                0x00004950       0x18 ./driverlib/i2c.o
                0x00004950                I2CMasterErr
 .text.I2CMasterDataPut
                0x00004968        0x4 ./driverlib/i2c.o
                0x00004968                I2CMasterDataPut
 .text.I2CMasterDataGet
                0x0000496c        0x4 ./driverlib/i2c.o
                0x0000496c                I2CMasterDataGet
 .text.I2CMasterTimeoutSet
                0x00004970        0x4 ./driverlib/i2c.o
                0x00004970                I2CMasterTimeoutSet
 .text.I2CSlaveACKOverride
                0x00004974       0x1e ./driverlib/i2c.o
                0x00004974                I2CSlaveACKOverride
 .text.I2CSlaveACKValueSet
                0x00004992       0x1e ./driverlib/i2c.o
                0x00004992                I2CSlaveACKValueSet
 .text.I2CSlaveStatus
                0x000049b0        0x6 ./driverlib/i2c.o
                0x000049b0                I2CSlaveStatus
 .text.I2CSlaveDataPut
                0x000049b6        0x6 ./driverlib/i2c.o
                0x000049b6                I2CSlaveDataPut
 .text.I2CSlaveDataGet
                0x000049bc        0x6 ./driverlib/i2c.o
                0x000049bc                I2CSlaveDataGet
 .text.I2CTxFIFOConfigSet
                0x000049c2       0x18 ./driverlib/i2c.o
                0x000049c2                I2CTxFIFOConfigSet
 .text.I2CTxFIFOFlush
                0x000049da        0xe ./driverlib/i2c.o
                0x000049da                I2CTxFIFOFlush
 .text.I2CRxFIFOConfigSet
                0x000049e8       0x16 ./driverlib/i2c.o
                0x000049e8                I2CRxFIFOConfigSet
 .text.I2CRxFIFOFlush
                0x000049fe        0xe ./driverlib/i2c.o
                0x000049fe                I2CRxFIFOFlush
 .text.I2CFIFOStatus
                0x00004a0c        0x6 ./driverlib/i2c.o
                0x00004a0c                I2CFIFOStatus
 .text.I2CFIFODataPut
                0x00004a12       0x10 ./driverlib/i2c.o
                0x00004a12                I2CFIFODataPut
 .text.I2CFIFODataPutNonBlocking
                0x00004a22       0x16 ./driverlib/i2c.o
                0x00004a22                I2CFIFODataPutNonBlocking
 .text.I2CFIFODataGet
                0x00004a38       0x10 ./driverlib/i2c.o
                0x00004a38                I2CFIFODataGet
 .text.I2CFIFODataGetNonBlocking
                0x00004a48       0x18 ./driverlib/i2c.o
                0x00004a48                I2CFIFODataGetNonBlocking
 .text.I2CMasterBurstLengthSet
                0x00004a60        0x4 ./driverlib/i2c.o
                0x00004a60                I2CMasterBurstLengthSet
 .text.I2CMasterBurstCountGet
                0x00004a64        0x4 ./driverlib/i2c.o
                0x00004a64                I2CMasterBurstCountGet
 .text.I2CMasterGlitchFilterConfigSet
                0x00004a68       0x48 ./driverlib/i2c.o
                0x00004a68                I2CMasterGlitchFilterConfigSet
 .text.I2CSlaveFIFOEnable
                0x00004ab0        0xa ./driverlib/i2c.o
                0x00004ab0                I2CSlaveFIFOEnable
 .text.I2CSlaveFIFODisable
                0x00004aba        0x8 ./driverlib/i2c.o
                0x00004aba                I2CSlaveFIFODisable
 .text.I2CLoopbackEnable
                0x00004ac2        0xa ./driverlib/i2c.o
                0x00004ac2                I2CLoopbackEnable
 .text._IntDefaultHandler
                0x00004acc        0x2 ./driverlib/interrupt.o
 .text.IntMasterEnable
                0x00004ace        0xe ./driverlib/interrupt.o
                0x00004ace                IntMasterEnable
 .text.IntMasterDisable
                0x00004adc        0xe ./driverlib/interrupt.o
                0x00004adc                IntMasterDisable
 *fill*         0x00004aea        0x2 
 .text.IntRegister
                0x00004aec       0x3c ./driverlib/interrupt.o
                0x00004aec                IntRegister
 .text.IntUnregister
                0x00004b28       0x14 ./driverlib/interrupt.o
                0x00004b28                IntUnregister
 .text.IntPriorityGroupingSet
                0x00004b3c       0x1c ./driverlib/interrupt.o
                0x00004b3c                IntPriorityGroupingSet
 .text.IntPriorityGroupingGet
                0x00004b58       0x28 ./driverlib/interrupt.o
                0x00004b58                IntPriorityGroupingGet
 .text.IntPrioritySet
                0x00004b80       0x2c ./driverlib/interrupt.o
                0x00004b80                IntPrioritySet
 .text.IntPriorityGet
                0x00004bac       0x1c ./driverlib/interrupt.o
                0x00004bac                IntPriorityGet
 .text.IntEnable
                0x00004bc8       0x68 ./driverlib/interrupt.o
                0x00004bc8                IntEnable
 .text.IntDisable
                0x00004c30       0x68 ./driverlib/interrupt.o
                0x00004c30                IntDisable
 .text.IntIsEnabled
                0x00004c98       0x68 ./driverlib/interrupt.o
                0x00004c98                IntIsEnabled
 .text.IntPendSet
                0x00004d00       0x54 ./driverlib/interrupt.o
                0x00004d00                IntPendSet
 .text.IntPendClear
                0x00004d54       0x44 ./driverlib/interrupt.o
                0x00004d54                IntPendClear
 .text.IntPriorityMaskSet
                0x00004d98        0x8 ./driverlib/interrupt.o
                0x00004d98                IntPriorityMaskSet
 .text.IntPriorityMaskGet
                0x00004da0        0x8 ./driverlib/interrupt.o
                0x00004da0                IntPriorityMaskGet
 .text.IntTrigger
                0x00004da8        0xc ./driverlib/interrupt.o
                0x00004da8                IntTrigger
 .text.LCDModeSet
                0x00004db4       0x24 ./driverlib/lcd.o
                0x00004db4                LCDModeSet
 .text.LCDClockReset
                0x00004dd8       0x1c ./driverlib/lcd.o
                0x00004dd8                LCDClockReset
 .text.LCDIDDConfigSet
                0x00004df4        0x4 ./driverlib/lcd.o
                0x00004df4                LCDIDDConfigSet
 .text.LCDIDDTimingSet
                0x00004df8       0x38 ./driverlib/lcd.o
                0x00004df8                LCDIDDTimingSet
 .text.LCDIDDDMADisable
                0x00004e30        0xa ./driverlib/lcd.o
                0x00004e30                LCDIDDDMADisable
 .text.LCDIDDCommandWrite
                0x00004e3a        0xc ./driverlib/lcd.o
                0x00004e3a                LCDIDDCommandWrite
 .text.LCDIDDDataWrite
                0x00004e46        0xc ./driverlib/lcd.o
                0x00004e46                LCDIDDDataWrite
 .text.LCDIDDIndexedWrite
                0x00004e52       0x1e ./driverlib/lcd.o
                0x00004e52                LCDIDDIndexedWrite
 .text.LCDIDDStatusRead
                0x00004e70        0xe ./driverlib/lcd.o
                0x00004e70                LCDIDDStatusRead
 .text.LCDIDDDataRead
                0x00004e7e        0xe ./driverlib/lcd.o
                0x00004e7e                LCDIDDDataRead
 .text.LCDIDDIndexedRead
                0x00004e8c       0x1a ./driverlib/lcd.o
                0x00004e8c                LCDIDDIndexedRead
 .text.LCDIDDDMAWrite
                0x00004ea6       0x36 ./driverlib/lcd.o
                0x00004ea6                LCDIDDDMAWrite
 .text.LCDRasterConfigSet
                0x00004edc        0x8 ./driverlib/lcd.o
                0x00004edc                LCDRasterConfigSet
 .text.LCDRasterTimingSet
                0x00004ee4       0x98 ./driverlib/lcd.o
                0x00004ee4                LCDRasterTimingSet
 .text.LCDRasterACBiasIntCountSet
                0x00004f7c       0x12 ./driverlib/lcd.o
                0x00004f7c                LCDRasterACBiasIntCountSet
 .text.LCDRasterEnable
                0x00004f8e       0x14 ./driverlib/lcd.o
                0x00004f8e                LCDRasterEnable
 .text.LCDRasterEnabled
                0x00004fa2        0x8 ./driverlib/lcd.o
                0x00004fa2                LCDRasterEnabled
 .text.LCDRasterDisable
                0x00004faa        0xa ./driverlib/lcd.o
                0x00004faa                LCDRasterDisable
 .text.LCDRasterSubPanelConfigSet
                0x00004fb4       0x34 ./driverlib/lcd.o
                0x00004fb4                LCDRasterSubPanelConfigSet
 .text.LCDRasterSubPanelEnable
                0x00004fe8        0xa ./driverlib/lcd.o
                0x00004fe8                LCDRasterSubPanelEnable
 .text.LCDRasterSubPanelDisable
                0x00004ff2        0xa ./driverlib/lcd.o
                0x00004ff2                LCDRasterSubPanelDisable
 .text.LCDDMAConfigSet
                0x00004ffc        0x4 ./driverlib/lcd.o
                0x00004ffc                LCDDMAConfigSet
 .text.LCDRasterPaletteSet
                0x00005000       0x5c ./driverlib/lcd.o
                0x00005000                LCDRasterPaletteSet
 .text.LCDRasterFrameBufferSet
                0x0000505c       0x16 ./driverlib/lcd.o
                0x0000505c                LCDRasterFrameBufferSet
 .text.LCDIntEnable
                0x00005072        0x4 ./driverlib/lcd.o
                0x00005072                LCDIntEnable
 .text.LCDIntDisable
                0x00005076        0x4 ./driverlib/lcd.o
                0x00005076                LCDIntDisable
 .text.LCDIntStatus
                0x0000507a        0xa ./driverlib/lcd.o
                0x0000507a                LCDIntStatus
 .text.LCDIntClear
                0x00005084        0x4 ./driverlib/lcd.o
                0x00005084                LCDIntClear
 .text.LCDIntRegister
                0x00005088       0x10 ./driverlib/lcd.o
                0x00005088                LCDIntRegister
 .text.LCDIntUnregister
                0x00005098       0x10 ./driverlib/lcd.o
                0x00005098                LCDIntUnregister
 .text.MPUEnable
                0x000050a8       0x10 ./driverlib/mpu.o
                0x000050a8                MPUEnable
 .text.MPUDisable
                0x000050b8       0x10 ./driverlib/mpu.o
                0x000050b8                MPUDisable
 .text.MPURegionCountGet
                0x000050c8       0x10 ./driverlib/mpu.o
                0x000050c8                MPURegionCountGet
 .text.MPURegionEnable
                0x000050d8       0x18 ./driverlib/mpu.o
                0x000050d8                MPURegionEnable
 .text.MPURegionDisable
                0x000050f0       0x18 ./driverlib/mpu.o
                0x000050f0                MPURegionDisable
 .text.MPURegionSet
                0x00005108       0x1c ./driverlib/mpu.o
                0x00005108                MPURegionSet
 .text.MPURegionGet
                0x00005124       0x20 ./driverlib/mpu.o
                0x00005124                MPURegionGet
 .text.MPUIntRegister
                0x00005144       0x12 ./driverlib/mpu.o
                0x00005144                MPUIntRegister
 .text.MPUIntUnregister
                0x00005156       0x10 ./driverlib/mpu.o
                0x00005156                MPUIntUnregister
 *fill*         0x00005166        0x2 
 .text._OneWireIntNumberGet
                0x00005168       0x24 ./driverlib/onewire.o
 .text.OneWireInit
                0x0000518c        0x4 ./driverlib/onewire.o
                0x0000518c                OneWireInit
 .text.OneWireBusReset
                0x00005190        0xa ./driverlib/onewire.o
                0x00005190                OneWireBusReset
 .text.OneWireBusStatus
                0x0000519a        0x8 ./driverlib/onewire.o
                0x0000519a                OneWireBusStatus
 .text.OneWireDataGet
                0x000051a2        0xe ./driverlib/onewire.o
                0x000051a2                OneWireDataGet
 .text.OneWireDataGetNonBlocking
                0x000051b0       0x14 ./driverlib/onewire.o
                0x000051b0                OneWireDataGetNonBlocking
 .text.OneWireIntClear
                0x000051c4        0x6 ./driverlib/onewire.o
                0x000051c4                OneWireIntClear
 .text.OneWireIntDisable
                0x000051ca        0xe ./driverlib/onewire.o
                0x000051ca                OneWireIntDisable
 .text.OneWireIntEnable
                0x000051d8        0xc ./driverlib/onewire.o
                0x000051d8                OneWireIntEnable
 .text.OneWireIntStatus
                0x000051e4        0xe ./driverlib/onewire.o
                0x000051e4                OneWireIntStatus
 .text.OneWireIntRegister
                0x000051f2       0x18 ./driverlib/onewire.o
                0x000051f2                OneWireIntRegister
 .text.OneWireIntUnregister
                0x0000520a       0x14 ./driverlib/onewire.o
                0x0000520a                OneWireIntUnregister
 .text.OneWireDMADisable
                0x0000521e       0x1c ./driverlib/onewire.o
                0x0000521e                OneWireDMADisable
 *fill*         0x0000523a        0x2 
 .text.OneWireDMAEnable
                0x0000523c       0x54 ./driverlib/onewire.o
                0x0000523c                OneWireDMAEnable
 .text.OneWireTransaction
                0x00005290       0x44 ./driverlib/onewire.o
                0x00005290                OneWireTransaction
 .text._PWMGenIntNumberGet
                0x000052d4      0x124 ./driverlib/pwm.o
 .text._PWMFaultIntNumberGet
                0x000053f8       0x50 ./driverlib/pwm.o
 .text.PWMGenConfigure
                0x00005448       0x34 ./driverlib/pwm.o
                0x00005448                PWMGenConfigure
 .text.PWMGenPeriodSet
                0x0000547c       0x16 ./driverlib/pwm.o
                0x0000547c                PWMGenPeriodSet
 .text.PWMGenPeriodGet
                0x00005492       0x16 ./driverlib/pwm.o
                0x00005492                PWMGenPeriodGet
 .text.PWMGenEnable
                0x000054a8        0xa ./driverlib/pwm.o
                0x000054a8                PWMGenEnable
 .text.PWMGenDisable
                0x000054b2        0xa ./driverlib/pwm.o
                0x000054b2                PWMGenDisable
 .text.PWMPulseWidthSet
                0x000054bc       0x28 ./driverlib/pwm.o
                0x000054bc                PWMPulseWidthSet
 .text.PWMPulseWidthGet
                0x000054e4       0x2a ./driverlib/pwm.o
                0x000054e4                PWMPulseWidthGet
 .text.PWMDeadBandEnable
                0x0000550e       0x10 ./driverlib/pwm.o
                0x0000550e                PWMDeadBandEnable
 .text.PWMDeadBandDisable
                0x0000551e        0xc ./driverlib/pwm.o
                0x0000551e                PWMDeadBandDisable
 .text.PWMSyncUpdate
                0x0000552a        0x4 ./driverlib/pwm.o
                0x0000552a                PWMSyncUpdate
 .text.PWMSyncTimeBase
                0x0000552e        0x4 ./driverlib/pwm.o
                0x0000552e                PWMSyncTimeBase
 .text.PWMOutputState
                0x00005532       0x14 ./driverlib/pwm.o
                0x00005532                PWMOutputState
 .text.PWMOutputInvert
                0x00005546       0x14 ./driverlib/pwm.o
                0x00005546                PWMOutputInvert
 .text.PWMOutputFaultLevel
                0x0000555a       0x14 ./driverlib/pwm.o
                0x0000555a                PWMOutputFaultLevel
 .text.PWMOutputFault
                0x0000556e       0x14 ./driverlib/pwm.o
                0x0000556e                PWMOutputFault
 .text.PWMGenIntRegister
                0x00005582       0x18 ./driverlib/pwm.o
                0x00005582                PWMGenIntRegister
 .text.PWMGenIntUnregister
                0x0000559a       0x14 ./driverlib/pwm.o
                0x0000559a                PWMGenIntUnregister
 .text.PWMFaultIntRegister
                0x000055ae       0x18 ./driverlib/pwm.o
                0x000055ae                PWMFaultIntRegister
 .text.PWMFaultIntUnregister
                0x000055c6       0x14 ./driverlib/pwm.o
                0x000055c6                PWMFaultIntUnregister
 .text.PWMGenIntTrigEnable
                0x000055da        0xa ./driverlib/pwm.o
                0x000055da                PWMGenIntTrigEnable
 .text.PWMGenIntTrigDisable
                0x000055e4        0xc ./driverlib/pwm.o
                0x000055e4                PWMGenIntTrigDisable
 .text.PWMGenIntStatus
                0x000055f0        0xc ./driverlib/pwm.o
                0x000055f0                PWMGenIntStatus
 .text.PWMGenIntClear
                0x000055fc        0x6 ./driverlib/pwm.o
                0x000055fc                PWMGenIntClear
 .text.PWMIntEnable
                0x00005602        0x8 ./driverlib/pwm.o
                0x00005602                PWMIntEnable
 .text.PWMIntDisable
                0x0000560a        0xa ./driverlib/pwm.o
                0x0000560a                PWMIntDisable
 .text.PWMFaultIntClear
                0x00005614        0x8 ./driverlib/pwm.o
                0x00005614                PWMFaultIntClear
 .text.PWMIntStatus
                0x0000561c        0xa ./driverlib/pwm.o
                0x0000561c                PWMIntStatus
 .text.PWMFaultIntClearExt
                0x00005626        0x4 ./driverlib/pwm.o
                0x00005626                PWMFaultIntClearExt
 .text.PWMGenFaultConfigure
                0x0000562a       0x16 ./driverlib/pwm.o
                0x0000562a                PWMGenFaultConfigure
 .text.PWMGenFaultTriggerSet
                0x00005640        0xe ./driverlib/pwm.o
                0x00005640                PWMGenFaultTriggerSet
 .text.PWMGenFaultTriggerGet
                0x0000564e        0xe ./driverlib/pwm.o
                0x0000564e                PWMGenFaultTriggerGet
 .text.PWMGenFaultStatus
                0x0000565c       0x1a ./driverlib/pwm.o
                0x0000565c                PWMGenFaultStatus
 .text.PWMGenFaultClear
                0x00005676       0x1a ./driverlib/pwm.o
                0x00005676                PWMGenFaultClear
 .text.PWMClockSet
                0x00005690       0x14 ./driverlib/pwm.o
                0x00005690                PWMClockSet
 .text.PWMClockGet
                0x000056a4       0x1a ./driverlib/pwm.o
                0x000056a4                PWMClockGet
 .text.PWMOutputUpdateMode
                0x000056be       0x3a ./driverlib/pwm.o
                0x000056be                PWMOutputUpdateMode
 .text._QEIIntNumberGet
                0x000056f8       0x50 ./driverlib/qei.o
 .text.QEIEnable
                0x00005748        0xa ./driverlib/qei.o
                0x00005748                QEIEnable
 .text.QEIDisable
                0x00005752        0xa ./driverlib/qei.o
                0x00005752                QEIDisable
 .text.QEIConfigure
                0x0000575c        0xe ./driverlib/qei.o
                0x0000575c                QEIConfigure
 .text.QEIPositionGet
                0x0000576a        0x4 ./driverlib/qei.o
                0x0000576a                QEIPositionGet
 .text.QEIPositionSet
                0x0000576e        0x4 ./driverlib/qei.o
                0x0000576e                QEIPositionSet
 .text.QEIDirectionGet
                0x00005772       0x12 ./driverlib/qei.o
                0x00005772                QEIDirectionGet
 .text.QEIErrorGet
                0x00005784        0x8 ./driverlib/qei.o
                0x00005784                QEIErrorGet
 .text.QEIFilterEnable
                0x0000578c        0xa ./driverlib/qei.o
                0x0000578c                QEIFilterEnable
 .text.QEIFilterDisable
                0x00005796        0xa ./driverlib/qei.o
                0x00005796                QEIFilterDisable
 .text.QEIFilterConfigure
                0x000057a0        0xc ./driverlib/qei.o
                0x000057a0                QEIFilterConfigure
 .text.QEIVelocityEnable
                0x000057ac        0xa ./driverlib/qei.o
                0x000057ac                QEIVelocityEnable
 .text.QEIVelocityDisable
                0x000057b6        0xa ./driverlib/qei.o
                0x000057b6                QEIVelocityDisable
 .text.QEIVelocityConfigure
                0x000057c0       0x10 ./driverlib/qei.o
                0x000057c0                QEIVelocityConfigure
 .text.QEIVelocityGet
                0x000057d0        0x4 ./driverlib/qei.o
                0x000057d0                QEIVelocityGet
 .text.QEIIntRegister
                0x000057d4       0x18 ./driverlib/qei.o
                0x000057d4                QEIIntRegister
 .text.QEIIntUnregister
                0x000057ec       0x14 ./driverlib/qei.o
                0x000057ec                QEIIntUnregister
 .text.QEIIntEnable
                0x00005800        0x8 ./driverlib/qei.o
                0x00005800                QEIIntEnable
 .text.QEIIntDisable
                0x00005808        0xa ./driverlib/qei.o
                0x00005808                QEIIntDisable
 .text.QEIIntStatus
                0x00005812        0xa ./driverlib/qei.o
                0x00005812                QEIIntStatus
 .text.QEIIntClear
                0x0000581c        0x4 ./driverlib/qei.o
                0x0000581c                QEIIntClear
 .text.SHAMD5Reset
                0x00005820       0x24 ./driverlib/shamd5.o
                0x00005820                SHAMD5Reset
 .text.SHAMD5DMAEnable
                0x00005844        0xe ./driverlib/shamd5.o
                0x00005844                SHAMD5DMAEnable
 .text.SHAMD5DMADisable
                0x00005852        0xe ./driverlib/shamd5.o
                0x00005852                SHAMD5DMADisable
 .text.SHAMD5IntStatus
                0x00005860       0x52 ./driverlib/shamd5.o
                0x00005860                SHAMD5IntStatus
 .text.SHAMD5IntEnable
                0x000058b2       0x3a ./driverlib/shamd5.o
                0x000058b2                SHAMD5IntEnable
 .text.SHAMD5IntDisable
                0x000058ec       0x44 ./driverlib/shamd5.o
                0x000058ec                SHAMD5IntDisable
 .text.SHAMD5IntClear
                0x00005930       0x18 ./driverlib/shamd5.o
                0x00005930                SHAMD5IntClear
 .text.SHAMD5IntRegister
                0x00005948       0x10 ./driverlib/shamd5.o
                0x00005948                SHAMD5IntRegister
 .text.SHAMD5IntUnregister
                0x00005958       0x10 ./driverlib/shamd5.o
                0x00005958                SHAMD5IntUnregister
 .text.SHAMD5HashLengthSet
                0x00005968        0x4 ./driverlib/shamd5.o
                0x00005968                SHAMD5HashLengthSet
 .text.SHAMD5ConfigSet
                0x0000596c        0x4 ./driverlib/shamd5.o
                0x0000596c                SHAMD5ConfigSet
 .text.SHAMD5DataWriteNonBlocking
                0x00005970       0x32 ./driverlib/shamd5.o
                0x00005970                SHAMD5DataWriteNonBlocking
 .text.SHAMD5DataWrite
                0x000059a2       0x2a ./driverlib/shamd5.o
                0x000059a2                SHAMD5DataWrite
 .text._SHAMD5DataWriteMultiple
                0x000059cc       0x4a ./driverlib/shamd5.o
 .text.SHAMD5ResultRead
                0x00005a16       0x3e ./driverlib/shamd5.o
                0x00005a16                SHAMD5ResultRead
 .text.SHAMD5DataProcess
                0x00005a54       0x40 ./driverlib/shamd5.o
                0x00005a54                SHAMD5DataProcess
 .text.SHAMD5HMACProcess
                0x00005a94       0x40 ./driverlib/shamd5.o
                0x00005a94                SHAMD5HMACProcess
 .text.SHAMD5HMACPPKeyGenerate
                0x00005ad4       0x48 ./driverlib/shamd5.o
                0x00005ad4                SHAMD5HMACPPKeyGenerate
 .text.SHAMD5HMACKeySet
                0x00005b1c       0x1a ./driverlib/shamd5.o
                0x00005b1c                SHAMD5HMACKeySet
 .text.SHAMD5HMACPPKeySet
                0x00005b36       0x1e ./driverlib/shamd5.o
                0x00005b36                SHAMD5HMACPPKeySet
 .text._SSIIntNumberGet
                0x00005b54       0x54 ./driverlib/ssi.o
 .text.SSIConfigSetExpClk
                0x00005ba8       0x3c ./driverlib/ssi.o
                0x00005ba8                SSIConfigSetExpClk
 .text.SSIEnable
                0x00005be4        0xa ./driverlib/ssi.o
                0x00005be4                SSIEnable
 .text.SSIDisable
                0x00005bee        0xa ./driverlib/ssi.o
                0x00005bee                SSIDisable
 .text.SSIIntRegister
                0x00005bf8       0x18 ./driverlib/ssi.o
                0x00005bf8                SSIIntRegister
 .text.SSIIntUnregister
                0x00005c10       0x14 ./driverlib/ssi.o
                0x00005c10                SSIIntUnregister
 .text.SSIIntEnable
                0x00005c24        0x8 ./driverlib/ssi.o
                0x00005c24                SSIIntEnable
 .text.SSIIntDisable
                0x00005c2c        0xa ./driverlib/ssi.o
                0x00005c2c                SSIIntDisable
 .text.SSIIntStatus
                0x00005c36        0xa ./driverlib/ssi.o
                0x00005c36                SSIIntStatus
 .text.SSIIntClear
                0x00005c40        0x4 ./driverlib/ssi.o
                0x00005c40                SSIIntClear
 .text.SSIDataPut
                0x00005c44        0xc ./driverlib/ssi.o
                0x00005c44                SSIDataPut
 .text.SSIDataPutNonBlocking
                0x00005c50       0x12 ./driverlib/ssi.o
                0x00005c50                SSIDataPutNonBlocking
 .text.SSIDataGet
                0x00005c62        0xe ./driverlib/ssi.o
                0x00005c62                SSIDataGet
 .text.SSIDataGetNonBlocking
                0x00005c70       0x14 ./driverlib/ssi.o
                0x00005c70                SSIDataGetNonBlocking
 .text.SSIDMAEnable
                0x00005c84        0x8 ./driverlib/ssi.o
                0x00005c84                SSIDMAEnable
 .text.SSIDMADisable
                0x00005c8c        0xa ./driverlib/ssi.o
                0x00005c8c                SSIDMADisable
 .text.SSIBusy  0x00005c96        0x8 ./driverlib/ssi.o
                0x00005c96                SSIBusy
 .text.SSIClockSourceSet
                0x00005c9e        0x6 ./driverlib/ssi.o
                0x00005c9e                SSIClockSourceSet
 .text.SSIClockSourceGet
                0x00005ca4        0x6 ./driverlib/ssi.o
                0x00005ca4                SSIClockSourceGet
 .text.SSIAdvModeSet
                0x00005caa        0xc ./driverlib/ssi.o
                0x00005caa                SSIAdvModeSet
 .text.SSIAdvDataPutFrameEnd
                0x00005cb6       0x14 ./driverlib/ssi.o
                0x00005cb6                SSIAdvDataPutFrameEnd
 .text.SSIAdvDataPutFrameEndNonBlocking
                0x00005cca       0x1a ./driverlib/ssi.o
                0x00005cca                SSIAdvDataPutFrameEndNonBlocking
 .text.SSIAdvFrameHoldEnable
                0x00005ce4        0xa ./driverlib/ssi.o
                0x00005ce4                SSIAdvFrameHoldEnable
 .text.SSIAdvFrameHoldDisable
                0x00005cee        0xa ./driverlib/ssi.o
                0x00005cee                SSIAdvFrameHoldDisable
 .text.Crc8CCITT
                0x00005cf8       0x88 ./driverlib/sw_crc.o
                0x00005cf8                Crc8CCITT
 .text.Crc16    0x00005d80       0xd4 ./driverlib/sw_crc.o
                0x00005d80                Crc16
 .text.Crc16Array
                0x00005e54        0xc ./driverlib/sw_crc.o
                0x00005e54                Crc16Array
 .text.Crc16Array3
                0x00005e60       0xb0 ./driverlib/sw_crc.o
                0x00005e60                Crc16Array3
 .text.Crc32    0x00005f10       0xd4 ./driverlib/sw_crc.o
                0x00005f10                Crc32
 .text._SysCtlMemTimingGet
                0x00005fe4       0x28 ./driverlib/sysctl.o
 .text._SysCtlFrequencyGet
                0x0000600c       0x54 ./driverlib/sysctl.o
 .text.SysCtlSRAMSizeGet
                0x00006060       0x10 ./driverlib/sysctl.o
                0x00006060                SysCtlSRAMSizeGet
 .text.SysCtlFlashSizeGet
                0x00006070       0x44 ./driverlib/sysctl.o
                0x00006070                SysCtlFlashSizeGet
 .text.SysCtlFlashSectorSizeGet
                0x000060b4       0x38 ./driverlib/sysctl.o
                0x000060b4                SysCtlFlashSectorSizeGet
 .text.SysCtlPeripheralPresent
                0x000060ec       0x34 ./driverlib/sysctl.o
                0x000060ec                SysCtlPeripheralPresent
 .text.SysCtlPeripheralReady
                0x00006120       0x34 ./driverlib/sysctl.o
                0x00006120                SysCtlPeripheralReady
 .text.SysCtlPeripheralPowerOn
                0x00006154       0x30 ./driverlib/sysctl.o
                0x00006154                SysCtlPeripheralPowerOn
 .text.SysCtlPeripheralPowerOff
                0x00006184       0x30 ./driverlib/sysctl.o
                0x00006184                SysCtlPeripheralPowerOff
 .text.SysCtlPeripheralReset
                0x000061b4       0x48 ./driverlib/sysctl.o
                0x000061b4                SysCtlPeripheralReset
 .text.SysCtlPeripheralEnable
                0x000061fc       0x30 ./driverlib/sysctl.o
                0x000061fc                SysCtlPeripheralEnable
 .text.SysCtlPeripheralDisable
                0x0000622c       0x30 ./driverlib/sysctl.o
                0x0000622c                SysCtlPeripheralDisable
 .text.SysCtlPeripheralSleepEnable
                0x0000625c       0x30 ./driverlib/sysctl.o
                0x0000625c                SysCtlPeripheralSleepEnable
 .text.SysCtlPeripheralSleepDisable
                0x0000628c       0x30 ./driverlib/sysctl.o
                0x0000628c                SysCtlPeripheralSleepDisable
 .text.SysCtlPeripheralDeepSleepEnable
                0x000062bc       0x30 ./driverlib/sysctl.o
                0x000062bc                SysCtlPeripheralDeepSleepEnable
 .text.SysCtlPeripheralDeepSleepDisable
                0x000062ec       0x30 ./driverlib/sysctl.o
                0x000062ec                SysCtlPeripheralDeepSleepDisable
 .text.SysCtlPeripheralClockGating
                0x0000631c       0x58 ./driverlib/sysctl.o
                0x0000631c                SysCtlPeripheralClockGating
 .text.SysCtlIntRegister
                0x00006374       0x12 ./driverlib/sysctl.o
                0x00006374                SysCtlIntRegister
 .text.SysCtlIntUnregister
                0x00006386       0x10 ./driverlib/sysctl.o
                0x00006386                SysCtlIntUnregister
 *fill*         0x00006396        0x2 
 .text.SysCtlIntEnable
                0x00006398       0x10 ./driverlib/sysctl.o
                0x00006398                SysCtlIntEnable
 .text.SysCtlIntDisable
                0x000063a8       0x10 ./driverlib/sysctl.o
                0x000063a8                SysCtlIntDisable
 .text.SysCtlIntClear
                0x000063b8        0xc ./driverlib/sysctl.o
                0x000063b8                SysCtlIntClear
 .text.SysCtlIntStatus
                0x000063c4       0x18 ./driverlib/sysctl.o
                0x000063c4                SysCtlIntStatus
 .text.SysCtlLDOSleepSet
                0x000063dc        0xc ./driverlib/sysctl.o
                0x000063dc                SysCtlLDOSleepSet
 .text.SysCtlLDOSleepGet
                0x000063e8        0xc ./driverlib/sysctl.o
                0x000063e8                SysCtlLDOSleepGet
 .text.SysCtlLDODeepSleepSet
                0x000063f4        0xc ./driverlib/sysctl.o
                0x000063f4                SysCtlLDODeepSleepSet
 .text.SysCtlLDODeepSleepGet
                0x00006400        0xc ./driverlib/sysctl.o
                0x00006400                SysCtlLDODeepSleepGet
 .text.SysCtlSleepPowerSet
                0x0000640c        0xc ./driverlib/sysctl.o
                0x0000640c                SysCtlSleepPowerSet
 .text.SysCtlDeepSleepPowerSet
                0x00006418        0xc ./driverlib/sysctl.o
                0x00006418                SysCtlDeepSleepPowerSet
 .text.SysCtlReset
                0x00006424       0x10 ./driverlib/sysctl.o
                0x00006424                SysCtlReset
 .text.SysCtlSleep
                0x00006434        0x8 ./driverlib/sysctl.o
                0x00006434                SysCtlSleep
 .text.SysCtlDeepSleep
                0x0000643c       0x20 ./driverlib/sysctl.o
                0x0000643c                SysCtlDeepSleep
 .text.SysCtlResetCauseGet
                0x0000645c        0xc ./driverlib/sysctl.o
                0x0000645c                SysCtlResetCauseGet
 .text.SysCtlResetCauseClear
                0x00006468       0x10 ./driverlib/sysctl.o
                0x00006468                SysCtlResetCauseClear
 .text.SysCtlMOSCConfigSet
                0x00006478        0xc ./driverlib/sysctl.o
                0x00006478                SysCtlMOSCConfigSet
 .text.SysCtlPIOSCCalibrate
                0x00006484       0x54 ./driverlib/sysctl.o
                0x00006484                SysCtlPIOSCCalibrate
 .text.SysCtlResetBehaviorSet
                0x000064d8        0xc ./driverlib/sysctl.o
                0x000064d8                SysCtlResetBehaviorSet
 .text.SysCtlResetBehaviorGet
                0x000064e4        0xc ./driverlib/sysctl.o
                0x000064e4                SysCtlResetBehaviorGet
 .text.SysCtlClockFreqSet
                0x000064f0      0x224 ./driverlib/sysctl.o
                0x000064f0                SysCtlClockFreqSet
 .text.SysCtlClockSet
                0x00006714      0x128 ./driverlib/sysctl.o
                0x00006714                SysCtlClockSet
 .text.SysCtlClockGet
                0x0000683c      0x15c ./driverlib/sysctl.o
                0x0000683c                SysCtlClockGet
 .text.SysCtlDeepSleepClockSet
                0x00006998        0xc ./driverlib/sysctl.o
                0x00006998                SysCtlDeepSleepClockSet
 .text.SysCtlDeepSleepClockConfigSet
                0x000069a4       0x6c ./driverlib/sysctl.o
                0x000069a4                SysCtlDeepSleepClockConfigSet
 .text.SysCtlPWMClockSet
                0x00006a10       0x14 ./driverlib/sysctl.o
                0x00006a10                SysCtlPWMClockSet
 .text.SysCtlPWMClockGet
                0x00006a24       0x18 ./driverlib/sysctl.o
                0x00006a24                SysCtlPWMClockGet
 .text.SysCtlGPIOAHBEnable
                0x00006a3c       0x18 ./driverlib/sysctl.o
                0x00006a3c                SysCtlGPIOAHBEnable
 .text.SysCtlGPIOAHBDisable
                0x00006a54       0x18 ./driverlib/sysctl.o
                0x00006a54                SysCtlGPIOAHBDisable
 .text.SysCtlUSBPLLEnable
                0x00006a6c       0x10 ./driverlib/sysctl.o
                0x00006a6c                SysCtlUSBPLLEnable
 .text.SysCtlUSBPLLDisable
                0x00006a7c       0x10 ./driverlib/sysctl.o
                0x00006a7c                SysCtlUSBPLLDisable
 .text.SysCtlVoltageEventConfig
                0x00006a8c        0xc ./driverlib/sysctl.o
                0x00006a8c                SysCtlVoltageEventConfig
 .text.SysCtlVoltageEventStatus
                0x00006a98        0xc ./driverlib/sysctl.o
                0x00006a98                SysCtlVoltageEventStatus
 .text.SysCtlVoltageEventClear
                0x00006aa4       0x10 ./driverlib/sysctl.o
                0x00006aa4                SysCtlVoltageEventClear
 .text.SysCtlVCOGet
                0x00006ab4       0x7c ./driverlib/sysctl.o
                0x00006ab4                SysCtlVCOGet
 .text.SysCtlNMIStatus
                0x00006b30        0xc ./driverlib/sysctl.o
                0x00006b30                SysCtlNMIStatus
 .text.SysCtlNMIClear
                0x00006b3c       0x10 ./driverlib/sysctl.o
                0x00006b3c                SysCtlNMIClear
 .text.SysCtlClockOutConfig
                0x00006b4c       0x10 ./driverlib/sysctl.o
                0x00006b4c                SysCtlClockOutConfig
 .text.SysCtlAltClkConfig
                0x00006b5c        0xc ./driverlib/sysctl.o
                0x00006b5c                SysCtlAltClkConfig
 .text._SysExcIntNumberGet
                0x00006b68       0x38 ./driverlib/sysexc.o
 .text.SysExcIntRegister
                0x00006ba0       0x18 ./driverlib/sysexc.o
                0x00006ba0                SysExcIntRegister
 .text.SysExcIntUnregister
                0x00006bb8       0x14 ./driverlib/sysexc.o
                0x00006bb8                SysExcIntUnregister
 .text.SysExcIntEnable
                0x00006bcc       0x10 ./driverlib/sysexc.o
                0x00006bcc                SysExcIntEnable
 .text.SysExcIntDisable
                0x00006bdc       0x10 ./driverlib/sysexc.o
                0x00006bdc                SysExcIntDisable
 .text.SysExcIntStatus
                0x00006bec       0x18 ./driverlib/sysexc.o
                0x00006bec                SysExcIntStatus
 .text.SysExcIntClear
                0x00006c04        0xc ./driverlib/sysexc.o
                0x00006c04                SysExcIntClear
 .text.SysTickEnable
                0x00006c10       0x10 ./driverlib/systick.o
                0x00006c10                SysTickEnable
 .text.SysTickDisable
                0x00006c20       0x10 ./driverlib/systick.o
                0x00006c20                SysTickDisable
 .text.SysTickIntRegister
                0x00006c30       0x1c ./driverlib/systick.o
                0x00006c30                SysTickIntRegister
 .text.SysTickIntUnregister
                0x00006c4c       0x18 ./driverlib/systick.o
                0x00006c4c                SysTickIntUnregister
 .text.SysTickIntEnable
                0x00006c64       0x10 ./driverlib/systick.o
                0x00006c64                SysTickIntEnable
 .text.SysTickIntDisable
                0x00006c74       0x10 ./driverlib/systick.o
                0x00006c74                SysTickIntDisable
 .text.SysTickPeriodSet
                0x00006c84        0xc ./driverlib/systick.o
                0x00006c84                SysTickPeriodSet
 .text.SysTickPeriodGet
                0x00006c90        0xc ./driverlib/systick.o
                0x00006c90                SysTickPeriodGet
 .text.SysTickValueGet
                0x00006c9c        0xc ./driverlib/systick.o
                0x00006c9c                SysTickValueGet
 .text._TimerIntNumberGet
                0x00006ca8       0x58 ./driverlib/timer.o
 .text.TimerEnable
                0x00006d00       0x10 ./driverlib/timer.o
                0x00006d00                TimerEnable
 .text.TimerDisable
                0x00006d10       0x12 ./driverlib/timer.o
                0x00006d10                TimerDisable
 *fill*         0x00006d22        0x2 
 .text.TimerConfigure
                0x00006d24       0x60 ./driverlib/timer.o
                0x00006d24                TimerConfigure
 .text.TimerControlLevel
                0x00006d84       0x1e ./driverlib/timer.o
                0x00006d84                TimerControlLevel
 *fill*         0x00006da2        0x2 
 .text.TimerControlTrigger
                0x00006da4       0x58 ./driverlib/timer.o
                0x00006da4                TimerControlTrigger
 .text.TimerControlEvent
                0x00006dfc       0x18 ./driverlib/timer.o
                0x00006dfc                TimerControlEvent
 .text.TimerControlStall
                0x00006e14       0x1e ./driverlib/timer.o
                0x00006e14                TimerControlStall
 .text.TimerControlWaitOnTrigger
                0x00006e32       0x36 ./driverlib/timer.o
                0x00006e32                TimerControlWaitOnTrigger
 .text.TimerRTCEnable
                0x00006e68        0xa ./driverlib/timer.o
                0x00006e68                TimerRTCEnable
 .text.TimerRTCDisable
                0x00006e72        0xa ./driverlib/timer.o
                0x00006e72                TimerRTCDisable
 .text.TimerClockSourceSet
                0x00006e7c        0x6 ./driverlib/timer.o
                0x00006e7c                TimerClockSourceSet
 .text.TimerClockSourceGet
                0x00006e82        0x6 ./driverlib/timer.o
                0x00006e82                TimerClockSourceGet
 .text.TimerPrescaleSet
                0x00006e88       0x12 ./driverlib/timer.o
                0x00006e88                TimerPrescaleSet
 .text.TimerPrescaleGet
                0x00006e9a        0xc ./driverlib/timer.o
                0x00006e9a                TimerPrescaleGet
 .text.TimerPrescaleMatchSet
                0x00006ea6       0x12 ./driverlib/timer.o
                0x00006ea6                TimerPrescaleMatchSet
 .text.TimerPrescaleMatchGet
                0x00006eb8        0xc ./driverlib/timer.o
                0x00006eb8                TimerPrescaleMatchGet
 .text.TimerLoadSet
                0x00006ec4       0x12 ./driverlib/timer.o
                0x00006ec4                TimerLoadSet
 .text.TimerLoadGet
                0x00006ed6        0xc ./driverlib/timer.o
                0x00006ed6                TimerLoadGet
 .text.TimerLoadSet64
                0x00006ee2        0x6 ./driverlib/timer.o
                0x00006ee2                TimerLoadSet64
 .text.TimerLoadGet64
                0x00006ee8        0xe ./driverlib/timer.o
                0x00006ee8                TimerLoadGet64
 .text.TimerValueGet
                0x00006ef6        0xc ./driverlib/timer.o
                0x00006ef6                TimerValueGet
 .text.TimerValueGet64
                0x00006f02        0xe ./driverlib/timer.o
                0x00006f02                TimerValueGet64
 .text.TimerMatchSet
                0x00006f10       0x12 ./driverlib/timer.o
                0x00006f10                TimerMatchSet
 .text.TimerMatchGet
                0x00006f22        0xc ./driverlib/timer.o
                0x00006f22                TimerMatchGet
 .text.TimerMatchSet64
                0x00006f2e        0x6 ./driverlib/timer.o
                0x00006f2e                TimerMatchSet64
 .text.TimerMatchGet64
                0x00006f34        0xe ./driverlib/timer.o
                0x00006f34                TimerMatchGet64
 .text.TimerIntRegister
                0x00006f42       0x18 ./driverlib/timer.o
                0x00006f42                TimerIntRegister
 .text.TimerIntUnregister
                0x00006f5a       0x14 ./driverlib/timer.o
                0x00006f5a                TimerIntUnregister
 .text.TimerIntEnable
                0x00006f6e        0x8 ./driverlib/timer.o
                0x00006f6e                TimerIntEnable
 .text.TimerIntDisable
                0x00006f76        0xa ./driverlib/timer.o
                0x00006f76                TimerIntDisable
 .text.TimerIntStatus
                0x00006f80        0xa ./driverlib/timer.o
                0x00006f80                TimerIntStatus
 .text.TimerIntClear
                0x00006f8a        0x4 ./driverlib/timer.o
                0x00006f8a                TimerIntClear
 .text.TimerSynchronize
                0x00006f8e        0x4 ./driverlib/timer.o
                0x00006f8e                TimerSynchronize
 .text.TimerADCEventSet
                0x00006f92        0x4 ./driverlib/timer.o
                0x00006f92                TimerADCEventSet
 .text.TimerADCEventGet
                0x00006f96        0x4 ./driverlib/timer.o
                0x00006f96                TimerADCEventGet
 .text.TimerDMAEventSet
                0x00006f9a        0x4 ./driverlib/timer.o
                0x00006f9a                TimerDMAEventSet
 .text.TimerDMAEventGet
                0x00006f9e        0x4 ./driverlib/timer.o
                0x00006f9e                TimerDMAEventGet
 .text.TimerUpdateMode
                0x00006fa2       0x2a ./driverlib/timer.o
                0x00006fa2                TimerUpdateMode
 .text._UARTIntNumberGet
                0x00006fcc       0x54 ./driverlib/uart.o
 .text.UARTParityModeSet
                0x00007020        0xc ./driverlib/uart.o
                0x00007020                UARTParityModeSet
 .text.UARTParityModeGet
                0x0000702c        0x8 ./driverlib/uart.o
                0x0000702c                UARTParityModeGet
 .text.UARTFIFOLevelSet
                0x00007034        0x6 ./driverlib/uart.o
                0x00007034                UARTFIFOLevelSet
 .text.UARTFIFOLevelGet
                0x0000703a       0x10 ./driverlib/uart.o
                0x0000703a                UARTFIFOLevelGet
 .text.UARTConfigGetExpClk
                0x0000704a       0x2a ./driverlib/uart.o
                0x0000704a                UARTConfigGetExpClk
 .text.UARTEnable
                0x00007074       0x16 ./driverlib/uart.o
                0x00007074                UARTEnable
 .text.UARTDisable
                0x0000708a       0x1e ./driverlib/uart.o
                0x0000708a                UARTDisable
 .text.UARTConfigSetExpClk
                0x000070a8       0x48 ./driverlib/uart.o
                0x000070a8                UARTConfigSetExpClk
 .text.UARTFIFOEnable
                0x000070f0        0xa ./driverlib/uart.o
                0x000070f0                UARTFIFOEnable
 .text.UARTFIFODisable
                0x000070fa        0xa ./driverlib/uart.o
                0x000070fa                UARTFIFODisable
 .text.UARTEnableSIR
                0x00007104       0x16 ./driverlib/uart.o
                0x00007104                UARTEnableSIR
 .text.UARTDisableSIR
                0x0000711a        0xa ./driverlib/uart.o
                0x0000711a                UARTDisableSIR
 .text.UARTSmartCardEnable
                0x00007124       0x16 ./driverlib/uart.o
                0x00007124                UARTSmartCardEnable
 .text.UARTSmartCardDisable
                0x0000713a        0xa ./driverlib/uart.o
                0x0000713a                UARTSmartCardDisable
 .text.UARTModemControlSet
                0x00007144        0xc ./driverlib/uart.o
                0x00007144                UARTModemControlSet
 .text.UARTModemControlClear
                0x00007150        0xe ./driverlib/uart.o
                0x00007150                UARTModemControlClear
 .text.UARTModemControlGet
                0x0000715e        0x8 ./driverlib/uart.o
                0x0000715e                UARTModemControlGet
 .text.UARTModemStatusGet
                0x00007166        0xc ./driverlib/uart.o
                0x00007166                UARTModemStatusGet
 .text.UARTFlowControlSet
                0x00007172        0xc ./driverlib/uart.o
                0x00007172                UARTFlowControlSet
 .text.UARTFlowControlGet
                0x0000717e        0x8 ./driverlib/uart.o
                0x0000717e                UARTFlowControlGet
 .text.UARTTxIntModeSet
                0x00007186        0xc ./driverlib/uart.o
                0x00007186                UARTTxIntModeSet
 .text.UARTTxIntModeGet
                0x00007192        0x8 ./driverlib/uart.o
                0x00007192                UARTTxIntModeGet
 .text.UARTCharsAvail
                0x0000719a        0xe ./driverlib/uart.o
                0x0000719a                UARTCharsAvail
 .text.UARTSpaceAvail
                0x000071a8        0xe ./driverlib/uart.o
                0x000071a8                UARTSpaceAvail
 .text.UARTCharGetNonBlocking
                0x000071b6       0x12 ./driverlib/uart.o
                0x000071b6                UARTCharGetNonBlocking
 .text.UARTCharGet
                0x000071c8        0xc ./driverlib/uart.o
                0x000071c8                UARTCharGet
 .text.UARTCharPutNonBlocking
                0x000071d4       0x12 ./driverlib/uart.o
                0x000071d4                UARTCharPutNonBlocking
 .text.UARTCharPut
                0x000071e6        0xc ./driverlib/uart.o
                0x000071e6                UARTCharPut
 .text.UARTBreakCtl
                0x000071f2       0x14 ./driverlib/uart.o
                0x000071f2                UARTBreakCtl
 .text.UARTBusy
                0x00007206        0x8 ./driverlib/uart.o
                0x00007206                UARTBusy
 .text.UARTIntRegister
                0x0000720e       0x18 ./driverlib/uart.o
                0x0000720e                UARTIntRegister
 .text.UARTIntUnregister
                0x00007226       0x14 ./driverlib/uart.o
                0x00007226                UARTIntUnregister
 .text.UARTIntEnable
                0x0000723a        0x8 ./driverlib/uart.o
                0x0000723a                UARTIntEnable
 .text.UARTIntDisable
                0x00007242        0xa ./driverlib/uart.o
                0x00007242                UARTIntDisable
 .text.UARTIntStatus
                0x0000724c        0xa ./driverlib/uart.o
                0x0000724c                UARTIntStatus
 .text.UARTIntClear
                0x00007256        0x4 ./driverlib/uart.o
                0x00007256                UARTIntClear
 .text.UARTDMAEnable
                0x0000725a        0x8 ./driverlib/uart.o
                0x0000725a                UARTDMAEnable
 .text.UARTDMADisable
                0x00007262        0xa ./driverlib/uart.o
                0x00007262                UARTDMADisable
 .text.UARTRxErrorGet
                0x0000726c        0x8 ./driverlib/uart.o
                0x0000726c                UARTRxErrorGet
 .text.UARTRxErrorClear
                0x00007274        0x6 ./driverlib/uart.o
                0x00007274                UARTRxErrorClear
 .text.UARTClockSourceSet
                0x0000727a        0x6 ./driverlib/uart.o
                0x0000727a                UARTClockSourceSet
 .text.UARTClockSourceGet
                0x00007280        0x6 ./driverlib/uart.o
                0x00007280                UARTClockSourceGet
 .text.UART9BitEnable
                0x00007286        0xe ./driverlib/uart.o
                0x00007286                UART9BitEnable
 .text.UART9BitDisable
                0x00007294        0xe ./driverlib/uart.o
                0x00007294                UART9BitDisable
 .text.UART9BitAddrSet
                0x000072a2        0xa ./driverlib/uart.o
                0x000072a2                UART9BitAddrSet
 .text.UART9BitAddrSend
                0x000072ac       0x30 ./driverlib/uart.o
                0x000072ac                UART9BitAddrSend
 .text.UARTLoopbackEnable
                0x000072dc        0xa ./driverlib/uart.o
                0x000072dc                UARTLoopbackEnable
 *fill*         0x000072e6        0x2 
 .text.uDMAEnable
                0x000072e8        0xc ./driverlib/udma.o
                0x000072e8                uDMAEnable
 .text.uDMADisable
                0x000072f4        0xc ./driverlib/udma.o
                0x000072f4                uDMADisable
 .text.uDMAErrorStatusGet
                0x00007300        0xc ./driverlib/udma.o
                0x00007300                uDMAErrorStatusGet
 .text.uDMAErrorStatusClear
                0x0000730c        0xc ./driverlib/udma.o
                0x0000730c                uDMAErrorStatusClear
 .text.uDMAChannelEnable
                0x00007318       0x14 ./driverlib/udma.o
                0x00007318                uDMAChannelEnable
 .text.uDMAChannelDisable
                0x0000732c       0x14 ./driverlib/udma.o
                0x0000732c                uDMAChannelDisable
 .text.uDMAChannelIsEnabled
                0x00007340       0x1c ./driverlib/udma.o
                0x00007340                uDMAChannelIsEnabled
 .text.uDMAControlBaseSet
                0x0000735c        0xc ./driverlib/udma.o
                0x0000735c                uDMAControlBaseSet
 .text.uDMAControlBaseGet
                0x00007368        0xc ./driverlib/udma.o
                0x00007368                uDMAControlBaseGet
 .text.uDMAControlAlternateBaseGet
                0x00007374        0xc ./driverlib/udma.o
                0x00007374                uDMAControlAlternateBaseGet
 .text.uDMAChannelRequest
                0x00007380       0x14 ./driverlib/udma.o
                0x00007380                uDMAChannelRequest
 .text.uDMAChannelAttributeEnable
                0x00007394       0x50 ./driverlib/udma.o
                0x00007394                uDMAChannelAttributeEnable
 .text.uDMAChannelAttributeDisable
                0x000073e4       0x50 ./driverlib/udma.o
                0x000073e4                uDMAChannelAttributeDisable
 .text.uDMAChannelAttributeGet
                0x00007434       0x48 ./driverlib/udma.o
                0x00007434                uDMAChannelAttributeGet
 .text.uDMAChannelControlSet
                0x0000747c       0x20 ./driverlib/udma.o
                0x0000747c                uDMAChannelControlSet
 .text.uDMAChannelTransferSet
                0x0000749c       0x90 ./driverlib/udma.o
                0x0000749c                uDMAChannelTransferSet
 .text.uDMAChannelScatterGatherSet
                0x0000752c       0x5c ./driverlib/udma.o
                0x0000752c                uDMAChannelScatterGatherSet
 .text.uDMAChannelSizeGet
                0x00007588       0x20 ./driverlib/udma.o
                0x00007588                uDMAChannelSizeGet
 .text.uDMAChannelModeGet
                0x000075a8       0x28 ./driverlib/udma.o
                0x000075a8                uDMAChannelModeGet
 .text.uDMAIntRegister
                0x000075d0       0x10 ./driverlib/udma.o
                0x000075d0                uDMAIntRegister
 .text.uDMAIntUnregister
                0x000075e0       0x10 ./driverlib/udma.o
                0x000075e0                uDMAIntUnregister
 .text.uDMAIntStatus
                0x000075f0        0xc ./driverlib/udma.o
                0x000075f0                uDMAIntStatus
 .text.uDMAIntClear
                0x000075fc        0xc ./driverlib/udma.o
                0x000075fc                uDMAIntClear
 .text.uDMAChannelAssign
                0x00007608       0x30 ./driverlib/udma.o
                0x00007608                uDMAChannelAssign
 .text.uDMAChannelSelectSecondary
                0x00007638       0x10 ./driverlib/udma.o
                0x00007638                uDMAChannelSelectSecondary
 .text.uDMAChannelSelectDefault
                0x00007648       0x10 ./driverlib/udma.o
                0x00007648                uDMAChannelSelectDefault
 .text._USBIndexWrite
                0x00007658       0x22 ./driverlib/usb.o
 .text._USBIndexRead
                0x0000767a       0x20 ./driverlib/usb.o
 *fill*         0x0000769a        0x2 
 .text._USBIntNumberGet
                0x0000769c       0x38 ./driverlib/usb.o
 .text.USBHostSuspend
                0x000076d4        0xa ./driverlib/usb.o
                0x000076d4                USBHostSuspend
 .text.USBHostReset
                0x000076de       0x16 ./driverlib/usb.o
                0x000076de                USBHostReset
 .text.USBHighSpeed
                0x000076f4       0x16 ./driverlib/usb.o
                0x000076f4                USBHighSpeed
 .text.USBHostResume
                0x0000770a       0x16 ./driverlib/usb.o
                0x0000770a                USBHostResume
 .text.USBHostSpeedGet
                0x00007720       0x2e ./driverlib/usb.o
                0x00007720                USBHostSpeedGet
 .text.USBDevSpeedGet
                0x0000774e       0x10 ./driverlib/usb.o
                0x0000774e                USBDevSpeedGet
 *fill*         0x0000775e        0x2 
 .text.USBIntDisableControl
                0x00007760       0x2c ./driverlib/usb.o
                0x00007760                USBIntDisableControl
 .text.USBIntEnableControl
                0x0000778c       0x2c ./driverlib/usb.o
                0x0000778c                USBIntEnableControl
 .text.USBIntStatusControl
                0x000077b8       0x40 ./driverlib/usb.o
                0x000077b8                USBIntStatusControl
 .text.USBIntDisableEndpoint
                0x000077f8       0x1c ./driverlib/usb.o
                0x000077f8                USBIntDisableEndpoint
 .text.USBIntEnableEndpoint
                0x00007814       0x1a ./driverlib/usb.o
                0x00007814                USBIntEnableEndpoint
 .text.USBIntStatusEndpoint
                0x0000782e        0xc ./driverlib/usb.o
                0x0000782e                USBIntStatusEndpoint
 .text.USBIntRegister
                0x0000783a       0x18 ./driverlib/usb.o
                0x0000783a                USBIntRegister
 .text.USBIntUnregister
                0x00007852       0x14 ./driverlib/usb.o
                0x00007852                USBIntUnregister
 .text.USBEndpointStatus
                0x00007866       0x12 ./driverlib/usb.o
                0x00007866                USBEndpointStatus
 .text.USBHostEndpointStatusClear
                0x00007878       0x2c ./driverlib/usb.o
                0x00007878                USBHostEndpointStatusClear
 .text.USBDevEndpointStatusClear
                0x000078a4       0x60 ./driverlib/usb.o
                0x000078a4                USBDevEndpointStatusClear
 .text.USBHostEndpointDataToggle
                0x00007904       0x58 ./driverlib/usb.o
                0x00007904                USBHostEndpointDataToggle
 .text.USBEndpointDataToggleClear
                0x0000795c       0x26 ./driverlib/usb.o
                0x0000795c                USBEndpointDataToggleClear
 *fill*         0x00007982        0x2 
 .text.USBHostEndpointPing
                0x00007984       0x20 ./driverlib/usb.o
                0x00007984                USBHostEndpointPing
 .text.USBDevEndpointStall
                0x000079a4       0x36 ./driverlib/usb.o
                0x000079a4                USBDevEndpointStall
 .text.USBDevEndpointStallClear
                0x000079da       0x4e ./driverlib/usb.o
                0x000079da                USBDevEndpointStallClear
 .text.USBDevConnect
                0x00007a28        0xa ./driverlib/usb.o
                0x00007a28                USBDevConnect
 .text.USBDevDisconnect
                0x00007a32        0xa ./driverlib/usb.o
                0x00007a32                USBDevDisconnect
 .text.USBDevAddrSet
                0x00007a3c        0x6 ./driverlib/usb.o
                0x00007a3c                USBDevAddrSet
 .text.USBDevAddrGet
                0x00007a42        0x4 ./driverlib/usb.o
                0x00007a42                USBDevAddrGet
 .text.USBHostEndpointConfig
                0x00007a46       0xfe ./driverlib/usb.o
                0x00007a46                USBHostEndpointConfig
 .text.USBHostEndpointSpeed
                0x00007b44       0x5e ./driverlib/usb.o
                0x00007b44                USBHostEndpointSpeed
 .text.USBDevEndpointConfigSet
                0x00007ba2       0x8c ./driverlib/usb.o
                0x00007ba2                USBDevEndpointConfigSet
 .text.USBDevEndpointConfigGet
                0x00007c2e       0xb4 ./driverlib/usb.o
                0x00007c2e                USBDevEndpointConfigGet
 .text.USBFIFOConfigSet
                0x00007ce2       0x52 ./driverlib/usb.o
                0x00007ce2                USBFIFOConfigSet
 .text.USBFIFOConfigGet
                0x00007d34       0x50 ./driverlib/usb.o
                0x00007d34                USBFIFOConfigGet
 .text.USBEndpointDMAConfigSet
                0x00007d84       0x5c ./driverlib/usb.o
                0x00007d84                USBEndpointDMAConfigSet
 .text.USBEndpointDMAEnable
                0x00007de0       0x26 ./driverlib/usb.o
                0x00007de0                USBEndpointDMAEnable
 .text.USBEndpointDMADisable
                0x00007e06       0x26 ./driverlib/usb.o
                0x00007e06                USBEndpointDMADisable
 .text.USBEndpointDataAvail
                0x00007e2c       0x24 ./driverlib/usb.o
                0x00007e2c                USBEndpointDataAvail
 .text.USBEndpointDataGet
                0x00007e50       0x4e ./driverlib/usb.o
                0x00007e50                USBEndpointDataGet
 .text.USBDevEndpointDataAck
                0x00007e9e       0x20 ./driverlib/usb.o
                0x00007e9e                USBDevEndpointDataAck
 .text.USBHostEndpointDataAck
                0x00007ebe       0x20 ./driverlib/usb.o
                0x00007ebe                USBHostEndpointDataAck
 .text.USBEndpointDataPut
                0x00007ede       0x36 ./driverlib/usb.o
                0x00007ede                USBEndpointDataPut
 .text.USBEndpointDataSend
                0x00007f14       0x3a ./driverlib/usb.o
                0x00007f14                USBEndpointDataSend
 .text.USBFIFOFlush
                0x00007f4e       0x4e ./driverlib/usb.o
                0x00007f4e                USBFIFOFlush
 .text.USBHostRequestIN
                0x00007f9c       0x12 ./driverlib/usb.o
                0x00007f9c                USBHostRequestIN
 .text.USBHostRequestINClear
                0x00007fae       0x16 ./driverlib/usb.o
                0x00007fae                USBHostRequestINClear
 .text.USBHostRequestStatus
                0x00007fc4        0x8 ./driverlib/usb.o
                0x00007fc4                USBHostRequestStatus
 .text.USBHostAddrSet
                0x00007fcc       0x1e ./driverlib/usb.o
                0x00007fcc                USBHostAddrSet
 .text.USBHostAddrGet
                0x00007fea       0x1e ./driverlib/usb.o
                0x00007fea                USBHostAddrGet
 .text.USBHostHubAddrSet
                0x00008008       0x48 ./driverlib/usb.o
                0x00008008                USBHostHubAddrSet
 .text.USBHostHubAddrGet
                0x00008050       0x1e ./driverlib/usb.o
                0x00008050                USBHostHubAddrGet
 .text.USBHostPwrConfig
                0x0000806e       0x1e ./driverlib/usb.o
                0x0000806e                USBHostPwrConfig
 .text.USBHostPwrFaultEnable
                0x0000808c       0x10 ./driverlib/usb.o
                0x0000808c                USBHostPwrFaultEnable
 .text.USBHostPwrFaultDisable
                0x0000809c       0x12 ./driverlib/usb.o
                0x0000809c                USBHostPwrFaultDisable
 .text.USBHostPwrEnable
                0x000080ae       0x10 ./driverlib/usb.o
                0x000080ae                USBHostPwrEnable
 .text.USBHostPwrDisable
                0x000080be       0x12 ./driverlib/usb.o
                0x000080be                USBHostPwrDisable
 .text.USBFrameNumberGet
                0x000080d0        0x6 ./driverlib/usb.o
                0x000080d0                USBFrameNumberGet
 .text.USBOTGSessionRequest
                0x000080d6       0x1e ./driverlib/usb.o
                0x000080d6                USBOTGSessionRequest
 .text.USBFIFOAddrGet
                0x000080f4        0x8 ./driverlib/usb.o
                0x000080f4                USBFIFOAddrGet
 .text.USBModeGet
                0x000080fc        0xa ./driverlib/usb.o
                0x000080fc                USBModeGet
 .text.USBEndpointDMAChannel
                0x00008106       0x22 ./driverlib/usb.o
                0x00008106                USBEndpointDMAChannel
 .text.USBHostMode
                0x00008128        0x8 ./driverlib/usb.o
                0x00008128                USBHostMode
 .text.USBDevMode
                0x00008130        0x8 ./driverlib/usb.o
                0x00008130                USBDevMode
 .text.USBOTGMode
                0x00008138        0x8 ./driverlib/usb.o
                0x00008138                USBOTGMode
 .text.USBModeConfig
                0x00008140        0x6 ./driverlib/usb.o
                0x00008140                USBModeConfig
 .text.USBPHYPowerOff
                0x00008146        0xa ./driverlib/usb.o
                0x00008146                USBPHYPowerOff
 .text.USBPHYPowerOn
                0x00008150        0xa ./driverlib/usb.o
                0x00008150                USBPHYPowerOn
 .text.USBEndpointPacketCountSet
                0x0000815a        0xe ./driverlib/usb.o
                0x0000815a                USBEndpointPacketCountSet
 .text.USBNumEndpointsGet
                0x00008168        0xa ./driverlib/usb.o
                0x00008168                USBNumEndpointsGet
 .text.USBControllerVersion
                0x00008172        0xa ./driverlib/usb.o
                0x00008172                USBControllerVersion
 .text.USBClockEnable
                0x0000817c        0xa ./driverlib/usb.o
                0x0000817c                USBClockEnable
 .text.USBClockDisable
                0x00008186        0x8 ./driverlib/usb.o
                0x00008186                USBClockDisable
 .text.USBDMAChannelIntEnable
                0x0000818e       0x12 ./driverlib/usb.o
                0x0000818e                USBDMAChannelIntEnable
 .text.USBDMAChannelIntDisable
                0x000081a0       0x12 ./driverlib/usb.o
                0x000081a0                USBDMAChannelIntDisable
 .text.USBDMAChannelIntStatus
                0x000081b2        0x6 ./driverlib/usb.o
                0x000081b2                USBDMAChannelIntStatus
 .text.USBDMAChannelEnable
                0x000081b8       0x12 ./driverlib/usb.o
                0x000081b8                USBDMAChannelEnable
 .text.USBDMAChannelDisable
                0x000081ca       0x12 ./driverlib/usb.o
                0x000081ca                USBDMAChannelDisable
 .text.USBDMAChannelConfigSet
                0x000081dc       0x12 ./driverlib/usb.o
                0x000081dc                USBDMAChannelConfigSet
 .text.USBDMAChannelStatus
                0x000081ee        0xe ./driverlib/usb.o
                0x000081ee                USBDMAChannelStatus
 .text.USBDMAChannelStatusClear
                0x000081fc       0x16 ./driverlib/usb.o
                0x000081fc                USBDMAChannelStatusClear
 .text.USBDMAChannelAddressSet
                0x00008212        0xa ./driverlib/usb.o
                0x00008212                USBDMAChannelAddressSet
 .text.USBDMAChannelAddressGet
                0x0000821c        0xa ./driverlib/usb.o
                0x0000821c                USBDMAChannelAddressGet
 .text.USBDMAChannelCountSet
                0x00008226        0xa ./driverlib/usb.o
                0x00008226                USBDMAChannelCountSet
 .text.USBDMAChannelCountGet
                0x00008230        0xa ./driverlib/usb.o
                0x00008230                USBDMAChannelCountGet
 .text.USBDMANumChannels
                0x0000823a        0x8 ./driverlib/usb.o
                0x0000823a                USBDMANumChannels
 .text.USBULPIConfig
                0x00008242        0x8 ./driverlib/usb.o
                0x00008242                USBULPIConfig
 .text.USBULPIEnable
                0x0000824a        0xe ./driverlib/usb.o
                0x0000824a                USBULPIEnable
 .text.USBULPIDisable
                0x00008258        0xe ./driverlib/usb.o
                0x00008258                USBULPIDisable
 .text.USBULPIRegRead
                0x00008266       0x22 ./driverlib/usb.o
                0x00008266                USBULPIRegRead
 .text.USBULPIRegWrite
                0x00008288       0x22 ./driverlib/usb.o
                0x00008288                USBULPIRegWrite
 .text.USBHostLPMSend
                0x000082aa       0x28 ./driverlib/usb.o
                0x000082aa                USBHostLPMSend
 *fill*         0x000082d2        0x2 
 .text.USBHostLPMConfig
                0x000082d4       0x20 ./driverlib/usb.o
                0x000082d4                USBHostLPMConfig
 .text.USBHostLPMResume
                0x000082f4        0xe ./driverlib/usb.o
                0x000082f4                USBHostLPMResume
 .text.USBDevLPMRemoteWake
                0x00008302        0xe ./driverlib/usb.o
                0x00008302                USBDevLPMRemoteWake
 .text.USBDevLPMConfig
                0x00008310        0x8 ./driverlib/usb.o
                0x00008310                USBDevLPMConfig
 .text.USBDevLPMEnable
                0x00008318        0xe ./driverlib/usb.o
                0x00008318                USBDevLPMEnable
 .text.USBDevLPMDisable
                0x00008326        0xe ./driverlib/usb.o
                0x00008326                USBDevLPMDisable
 .text.USBLPMLinkStateGet
                0x00008334        0xa ./driverlib/usb.o
                0x00008334                USBLPMLinkStateGet
 .text.USBLPMEndpointGet
                0x0000833e        0xc ./driverlib/usb.o
                0x0000833e                USBLPMEndpointGet
 .text.USBLPMRemoteWakeEnabled
                0x0000834a       0x12 ./driverlib/usb.o
                0x0000834a                USBLPMRemoteWakeEnabled
 .text.USBLPMIntStatus
                0x0000835c        0x6 ./driverlib/usb.o
                0x0000835c                USBLPMIntStatus
 .text.USBLPMIntEnable
                0x00008362        0xe ./driverlib/usb.o
                0x00008362                USBLPMIntEnable
 .text.USBLPMIntDisable
                0x00008370        0xe ./driverlib/usb.o
                0x00008370                USBLPMIntDisable
 .text.WatchdogRunning
                0x0000837e        0x8 ./driverlib/watchdog.o
                0x0000837e                WatchdogRunning
 .text.WatchdogEnable
                0x00008386        0xa ./driverlib/watchdog.o
                0x00008386                WatchdogEnable
 .text.WatchdogResetEnable
                0x00008390        0xa ./driverlib/watchdog.o
                0x00008390                WatchdogResetEnable
 .text.WatchdogResetDisable
                0x0000839a        0xa ./driverlib/watchdog.o
                0x0000839a                WatchdogResetDisable
 .text.WatchdogLock
                0x000083a4        0x8 ./driverlib/watchdog.o
                0x000083a4                WatchdogLock
 .text.WatchdogUnlock
                0x000083ac        0xc ./driverlib/watchdog.o
                0x000083ac                WatchdogUnlock
 .text.WatchdogLockState
                0x000083b8        0xe ./driverlib/watchdog.o
                0x000083b8                WatchdogLockState
 .text.WatchdogReloadSet
                0x000083c6        0x4 ./driverlib/watchdog.o
                0x000083c6                WatchdogReloadSet
 .text.WatchdogReloadGet
                0x000083ca        0x4 ./driverlib/watchdog.o
                0x000083ca                WatchdogReloadGet
 .text.WatchdogValueGet
                0x000083ce        0x4 ./driverlib/watchdog.o
                0x000083ce                WatchdogValueGet
 .text.WatchdogIntRegister
                0x000083d2       0x10 ./driverlib/watchdog.o
                0x000083d2                WatchdogIntRegister
 .text.WatchdogIntUnregister
                0x000083e2       0x10 ./driverlib/watchdog.o
                0x000083e2                WatchdogIntUnregister
 .text.WatchdogIntEnable
                0x000083f2        0xa ./driverlib/watchdog.o
                0x000083f2                WatchdogIntEnable
 .text.WatchdogIntStatus
                0x000083fc        0xa ./driverlib/watchdog.o
                0x000083fc                WatchdogIntStatus
 .text.WatchdogIntClear
                0x00008406        0x6 ./driverlib/watchdog.o
                0x00008406                WatchdogIntClear
 .text.WatchdogIntTypeSet
                0x0000840c        0xc ./driverlib/watchdog.o
                0x0000840c                WatchdogIntTypeSet
 .text.WatchdogStallEnable
                0x00008418        0xe ./driverlib/watchdog.o
                0x00008418                WatchdogStallEnable
 .text.WatchdogStallDisable
                0x00008426        0xe ./driverlib/watchdog.o
                0x00008426                WatchdogStallDisable
 .text.RandomAddEntropy
                0x00008434       0x1c ./utils/random.o
                0x00008434                RandomAddEntropy
 .text.RandomSeed
                0x00008450      0x19c ./utils/random.o
                0x00008450                RandomSeed
 .text.UARTStdioConfig
                0x000085ec       0x48 ./utils/uartstdio.o
                0x000085ec                UARTStdioConfig
 .text.UARTwrite
                0x00008634       0x38 ./utils/uartstdio.o
                0x00008634                UARTwrite
 .text.UARTgets
                0x0000866c       0x88 ./utils/uartstdio.o
                0x0000866c                UARTgets
 .text.UARTgetc
                0x000086f4       0x14 ./utils/uartstdio.o
                0x000086f4                UARTgetc
 .text.UARTvprintf
                0x00008708      0x200 ./utils/uartstdio.o
                0x00008708                UARTvprintf
 .text.UARTprintf
                0x00008908       0x1c ./utils/uartstdio.o
                0x00008908                UARTprintf
 .text.ucmptime
                0x00008924       0x7c ./utils/ustdlib.o
 .text.ustrncpy
                0x000089a0       0x34 ./utils/ustdlib.o
                0x000089a0                ustrncpy
 .text.uvsnprintf
                0x000089d4      0x2dc ./utils/ustdlib.o
                0x000089d4                uvsnprintf
 .text.usprintf
                0x00008cb0       0x20 ./utils/ustdlib.o
                0x00008cb0                usprintf
 .text.usnprintf
                0x00008cd0       0x1c ./utils/ustdlib.o
                0x00008cd0                usnprintf
 .text.ulocaltime
                0x00008cec      0x14c ./utils/ustdlib.o
                0x00008cec                ulocaltime
 .text.umktime  0x00008e38       0x58 ./utils/ustdlib.o
                0x00008e38                umktime
 .text.ustrtoul
                0x00008e90       0xb0 ./utils/ustdlib.o
                0x00008e90                ustrtoul
 .text.ustrtof  0x00008f40      0x15c ./utils/ustdlib.o
                0x00008f40                ustrtof
 .text.ustrlen  0x0000909c        0xe ./utils/ustdlib.o
                0x0000909c                ustrlen
 .text.ustrncasecmp
                0x000090aa       0x56 ./utils/ustdlib.o
                0x000090aa                ustrncasecmp
 .text.ustrcasecmp
                0x00009100        0xc ./utils/ustdlib.o
                0x00009100                ustrcasecmp
 .text.ustrncmp
                0x0000910c       0x3c ./utils/ustdlib.o
                0x0000910c                ustrncmp
 .text.ustrstr  0x00009148       0x2a ./utils/ustdlib.o
                0x00009148                ustrstr
 .text.ustrcmp  0x00009172        0xc ./utils/ustdlib.o
                0x00009172                ustrcmp
 *fill*         0x0000917e        0x2 
 .text.usrand   0x00009180        0xc ./utils/ustdlib.o
                0x00009180                usrand
 .text.urand    0x0000918c       0x1c ./utils/ustdlib.o
                0x0000918c                urand
 .text.unlikely
                0x000091a8        0xc c:/ti/ccs1020/ccs/tools/compiler/gcc-arm-none-eabi-9-2019-q4-major/bin/../lib/gcc/arm-none-eabi/9.2.1/thumb/v7e-m/nofp\libgcc.a(pr-support.o)
                0x000091a8                _Unwind_GetDataRelBase
                0x000091ae                _Unwind_GetTextRelBase
 .text.abort    0x000091b4       0x10 c:/ti/ccs1020/ccs/tools/compiler/gcc-arm-none-eabi-9-2019-q4-major/bin/../lib/gcc/arm-none-eabi/9.2.1/../../../../arm-none-eabi/lib/thumb/v7e-m/nofp\libg.a(lib_a-abort.o)
                0x000091b4                abort
 .text.exit     0x000091c4       0x20 c:/ti/ccs1020/ccs/tools/compiler/gcc-arm-none-eabi-9-2019-q4-major/bin/../lib/gcc/arm-none-eabi/9.2.1/../../../../arm-none-eabi/lib/thumb/v7e-m/nofp\libg.a(lib_a-exit.o)
                0x000091c4                exit
 .text.__libc_init_array
                0x000091e4       0x48 c:/ti/ccs1020/ccs/tools/compiler/gcc-arm-none-eabi-9-2019-q4-major/bin/../lib/gcc/arm-none-eabi/9.2.1/../../../../arm-none-eabi/lib/thumb/v7e-m/nofp\libg.a(lib_a-init.o)
                0x000091e4                __libc_init_array
 .text.memset   0x0000922c       0xa0 c:/ti/ccs1020/ccs/tools/compiler/gcc-arm-none-eabi-9-2019-q4-major/bin/../lib/gcc/arm-none-eabi/9.2.1/../../../../arm-none-eabi/lib/thumb/v7e-m/nofp\libg.a(lib_a-memset.o)
                0x0000922c                memset
 .text._init_signal_r.part.0
                0x000092cc       0x2c c:/ti/ccs1020/ccs/tools/compiler/gcc-arm-none-eabi-9-2019-q4-major/bin/../lib/gcc/arm-none-eabi/9.2.1/../../../../arm-none-eabi/lib/thumb/v7e-m/nofp\libg.a(lib_a-signal.o)
 .text._init_signal_r
                0x000092f8       0x10 c:/ti/ccs1020/ccs/tools/compiler/gcc-arm-none-eabi-9-2019-q4-major/bin/../lib/gcc/arm-none-eabi/9.2.1/../../../../arm-none-eabi/lib/thumb/v7e-m/nofp\libg.a(lib_a-signal.o)
                0x000092f8                _init_signal_r
 .text._signal_r
                0x00009308       0x38 c:/ti/ccs1020/ccs/tools/compiler/gcc-arm-none-eabi-9-2019-q4-major/bin/../lib/gcc/arm-none-eabi/9.2.1/../../../../arm-none-eabi/lib/thumb/v7e-m/nofp\libg.a(lib_a-signal.o)
                0x00009308                _signal_r
 .text._raise_r
                0x00009340       0x58 c:/ti/ccs1020/ccs/tools/compiler/gcc-arm-none-eabi-9-2019-q4-major/bin/../lib/gcc/arm-none-eabi/9.2.1/../../../../arm-none-eabi/lib/thumb/v7e-m/nofp\libg.a(lib_a-signal.o)
                0x00009340                _raise_r
 .text.__sigtramp_r
                0x00009398       0x54 c:/ti/ccs1020/ccs/tools/compiler/gcc-arm-none-eabi-9-2019-q4-major/bin/../lib/gcc/arm-none-eabi/9.2.1/../../../../arm-none-eabi/lib/thumb/v7e-m/nofp\libg.a(lib_a-signal.o)
                0x00009398                __sigtramp_r
 .text.raise    0x000093ec       0x10 c:/ti/ccs1020/ccs/tools/compiler/gcc-arm-none-eabi-9-2019-q4-major/bin/../lib/gcc/arm-none-eabi/9.2.1/../../../../arm-none-eabi/lib/thumb/v7e-m/nofp\libg.a(lib_a-signal.o)
                0x000093ec                raise
 .text.signal   0x000093fc       0x10 c:/ti/ccs1020/ccs/tools/compiler/gcc-arm-none-eabi-9-2019-q4-major/bin/../lib/gcc/arm-none-eabi/9.2.1/../../../../arm-none-eabi/lib/thumb/v7e-m/nofp\libg.a(lib_a-signal.o)
                0x000093fc                signal
 .text._init_signal
                0x0000940c       0x18 c:/ti/ccs1020/ccs/tools/compiler/gcc-arm-none-eabi-9-2019-q4-major/bin/../lib/gcc/arm-none-eabi/9.2.1/../../../../arm-none-eabi/lib/thumb/v7e-m/nofp\libg.a(lib_a-signal.o)
                0x0000940c                _init_signal
 .text.__sigtramp
                0x00009424       0x10 c:/ti/ccs1020/ccs/tools/compiler/gcc-arm-none-eabi-9-2019-q4-major/bin/../lib/gcc/arm-none-eabi/9.2.1/../../../../arm-none-eabi/lib/thumb/v7e-m/nofp\libg.a(lib_a-signal.o)
                0x00009424                __sigtramp
 .text._kill_r  0x00009434       0x2c c:/ti/ccs1020/ccs/tools/compiler/gcc-arm-none-eabi-9-2019-q4-major/bin/../lib/gcc/arm-none-eabi/9.2.1/../../../../arm-none-eabi/lib/thumb/v7e-m/nofp\libg.a(lib_a-signalr.o)
                0x00009434                _kill_r
 .text._getpid_r
                0x00009460        0x4 c:/ti/ccs1020/ccs/tools/compiler/gcc-arm-none-eabi-9-2019-q4-major/bin/../lib/gcc/arm-none-eabi/9.2.1/../../../../arm-none-eabi/lib/thumb/v7e-m/nofp\libg.a(lib_a-signalr.o)
                0x00009460                _getpid_r
 .text.startup.register_fini
                0x00009464       0x14 c:/ti/ccs1020/ccs/tools/compiler/gcc-arm-none-eabi-9-2019-q4-major/bin/../lib/gcc/arm-none-eabi/9.2.1/../../../../arm-none-eabi/lib/thumb/v7e-m/nofp\libg.a(lib_a-__call_atexit.o)
 .text.__call_exitprocs
                0x00009478       0xc4 c:/ti/ccs1020/ccs/tools/compiler/gcc-arm-none-eabi-9-2019-q4-major/bin/../lib/gcc/arm-none-eabi/9.2.1/../../../../arm-none-eabi/lib/thumb/v7e-m/nofp\libg.a(lib_a-__call_atexit.o)
                0x00009478                __call_exitprocs
 .text.atexit   0x0000953c        0xc c:/ti/ccs1020/ccs/tools/compiler/gcc-arm-none-eabi-9-2019-q4-major/bin/../lib/gcc/arm-none-eabi/9.2.1/../../../../arm-none-eabi/lib/thumb/v7e-m/nofp\libg.a(lib_a-atexit.o)
                0x0000953c                atexit
 .text.__libc_fini_array
                0x00009548       0x2c c:/ti/ccs1020/ccs/tools/compiler/gcc-arm-none-eabi-9-2019-q4-major/bin/../lib/gcc/arm-none-eabi/9.2.1/../../../../arm-none-eabi/lib/thumb/v7e-m/nofp\libg.a(lib_a-fini.o)
                0x00009548                __libc_fini_array
 .text.__retarget_lock_init
                0x00009574        0x4 c:/ti/ccs1020/ccs/tools/compiler/gcc-arm-none-eabi-9-2019-q4-major/bin/../lib/gcc/arm-none-eabi/9.2.1/../../../../arm-none-eabi/lib/thumb/v7e-m/nofp\libg.a(lib_a-lock.o)
                0x00009574                __retarget_lock_init
 .text.__retarget_lock_init_recursive
                0x00009578        0x4 c:/ti/ccs1020/ccs/tools/compiler/gcc-arm-none-eabi-9-2019-q4-major/bin/../lib/gcc/arm-none-eabi/9.2.1/../../../../arm-none-eabi/lib/thumb/v7e-m/nofp\libg.a(lib_a-lock.o)
                0x00009578                __retarget_lock_init_recursive
 .text.__retarget_lock_close
                0x0000957c        0x4 c:/ti/ccs1020/ccs/tools/compiler/gcc-arm-none-eabi-9-2019-q4-major/bin/../lib/gcc/arm-none-eabi/9.2.1/../../../../arm-none-eabi/lib/thumb/v7e-m/nofp\libg.a(lib_a-lock.o)
                0x0000957c                __retarget_lock_close
 .text.__retarget_lock_close_recursive
                0x00009580        0x4 c:/ti/ccs1020/ccs/tools/compiler/gcc-arm-none-eabi-9-2019-q4-major/bin/../lib/gcc/arm-none-eabi/9.2.1/../../../../arm-none-eabi/lib/thumb/v7e-m/nofp\libg.a(lib_a-lock.o)
                0x00009580                __retarget_lock_close_recursive
 .text.__retarget_lock_acquire
                0x00009584        0x4 c:/ti/ccs1020/ccs/tools/compiler/gcc-arm-none-eabi-9-2019-q4-major/bin/../lib/gcc/arm-none-eabi/9.2.1/../../../../arm-none-eabi/lib/thumb/v7e-m/nofp\libg.a(lib_a-lock.o)
                0x00009584                __retarget_lock_acquire
 .text.__retarget_lock_acquire_recursive
                0x00009588        0x4 c:/ti/ccs1020/ccs/tools/compiler/gcc-arm-none-eabi-9-2019-q4-major/bin/../lib/gcc/arm-none-eabi/9.2.1/../../../../arm-none-eabi/lib/thumb/v7e-m/nofp\libg.a(lib_a-lock.o)
                0x00009588                __retarget_lock_acquire_recursive
 .text.__retarget_lock_try_acquire
                0x0000958c        0x4 c:/ti/ccs1020/ccs/tools/compiler/gcc-arm-none-eabi-9-2019-q4-major/bin/../lib/gcc/arm-none-eabi/9.2.1/../../../../arm-none-eabi/lib/thumb/v7e-m/nofp\libg.a(lib_a-lock.o)
                0x0000958c                __retarget_lock_try_acquire
 .text.__retarget_lock_try_acquire_recursive
                0x00009590        0x4 c:/ti/ccs1020/ccs/tools/compiler/gcc-arm-none-eabi-9-2019-q4-major/bin/../lib/gcc/arm-none-eabi/9.2.1/../../../../arm-none-eabi/lib/thumb/v7e-m/nofp\libg.a(lib_a-lock.o)
                0x00009590                __retarget_lock_try_acquire_recursive
 .text.__retarget_lock_release
                0x00009594        0x4 c:/ti/ccs1020/ccs/tools/compiler/gcc-arm-none-eabi-9-2019-q4-major/bin/../lib/gcc/arm-none-eabi/9.2.1/../../../../arm-none-eabi/lib/thumb/v7e-m/nofp\libg.a(lib_a-lock.o)
                0x00009594                __retarget_lock_release
 .text.__retarget_lock_release_recursive
                0x00009598        0x4 c:/ti/ccs1020/ccs/tools/compiler/gcc-arm-none-eabi-9-2019-q4-major/bin/../lib/gcc/arm-none-eabi/9.2.1/../../../../arm-none-eabi/lib/thumb/v7e-m/nofp\libg.a(lib_a-lock.o)
                0x00009598                __retarget_lock_release_recursive
 .text._malloc_r
                0x0000959c      0x574 c:/ti/ccs1020/ccs/tools/compiler/gcc-arm-none-eabi-9-2019-q4-major/bin/../lib/gcc/arm-none-eabi/9.2.1/../../../../arm-none-eabi/lib/thumb/v7e-m/nofp\libg.a(lib_a-mallocr.o)
                0x0000959c                _malloc_r
 .text.__malloc_lock
                0x00009b10        0xc c:/ti/ccs1020/ccs/tools/compiler/gcc-arm-none-eabi-9-2019-q4-major/bin/../lib/gcc/arm-none-eabi/9.2.1/../../../../arm-none-eabi/lib/thumb/v7e-m/nofp\libg.a(lib_a-mlock.o)
                0x00009b10                __malloc_lock
 .text.__malloc_unlock
                0x00009b1c        0xc c:/ti/ccs1020/ccs/tools/compiler/gcc-arm-none-eabi-9-2019-q4-major/bin/../lib/gcc/arm-none-eabi/9.2.1/../../../../arm-none-eabi/lib/thumb/v7e-m/nofp\libg.a(lib_a-mlock.o)
                0x00009b1c                __malloc_unlock
 .text.cleanup_glue
                0x00009b28       0x1c c:/ti/ccs1020/ccs/tools/compiler/gcc-arm-none-eabi-9-2019-q4-major/bin/../lib/gcc/arm-none-eabi/9.2.1/../../../../arm-none-eabi/lib/thumb/v7e-m/nofp\libg.a(lib_a-reent.o)
                0x00009b28                cleanup_glue
 .text._reclaim_reent
                0x00009b44       0x84 c:/ti/ccs1020/ccs/tools/compiler/gcc-arm-none-eabi-9-2019-q4-major/bin/../lib/gcc/arm-none-eabi/9.2.1/../../../../arm-none-eabi/lib/thumb/v7e-m/nofp\libg.a(lib_a-reent.o)
                0x00009b44                _reclaim_reent
 .text._sbrk_r  0x00009bc8       0x24 c:/ti/ccs1020/ccs/tools/compiler/gcc-arm-none-eabi-9-2019-q4-major/bin/../lib/gcc/arm-none-eabi/9.2.1/../../../../arm-none-eabi/lib/thumb/v7e-m/nofp\libg.a(lib_a-sbrkr.o)
                0x00009bc8                _sbrk_r
 .text.__register_exitproc
                0x00009bec       0x8c c:/ti/ccs1020/ccs/tools/compiler/gcc-arm-none-eabi-9-2019-q4-major/bin/../lib/gcc/arm-none-eabi/9.2.1/../../../../arm-none-eabi/lib/thumb/v7e-m/nofp\libg.a(lib_a-__atexit.o)
                0x00009bec                __register_exitproc
 .text._malloc_trim_r
                0x00009c78       0xa0 c:/ti/ccs1020/ccs/tools/compiler/gcc-arm-none-eabi-9-2019-q4-major/bin/../lib/gcc/arm-none-eabi/9.2.1/../../../../arm-none-eabi/lib/thumb/v7e-m/nofp\libg.a(lib_a-freer.o)
                0x00009c78                _malloc_trim_r
 .text._free_r  0x00009d18      0x208 c:/ti/ccs1020/ccs/tools/compiler/gcc-arm-none-eabi-9-2019-q4-major/bin/../lib/gcc/arm-none-eabi/9.2.1/../../../../arm-none-eabi/lib/thumb/v7e-m/nofp\libg.a(lib_a-freer.o)
                0x00009d18                _free_r
 .text._getpid  0x00009f20       0x10 c:/ti/ccs1020/ccs/tools/compiler/gcc-arm-none-eabi-9-2019-q4-major/bin/../lib/gcc/arm-none-eabi/9.2.1/../../../../arm-none-eabi/lib/thumb/v7e-m/nofp\libnosys.a(getpid.o)
                0x00009f20                _getpid
 .text._kill    0x00009f30       0x10 c:/ti/ccs1020/ccs/tools/compiler/gcc-arm-none-eabi-9-2019-q4-major/bin/../lib/gcc/arm-none-eabi/9.2.1/../../../../arm-none-eabi/lib/thumb/v7e-m/nofp\libnosys.a(kill.o)
                0x00009f30                _kill
 .text._sbrk    0x00009f40       0x1c c:/ti/ccs1020/ccs/tools/compiler/gcc-arm-none-eabi-9-2019-q4-major/bin/../lib/gcc/arm-none-eabi/9.2.1/../../../../arm-none-eabi/lib/thumb/v7e-m/nofp\libnosys.a(sbrk.o)
                0x00009f40                _sbrk
 .text._exit    0x00009f5c        0x4 c:/ti/ccs1020/ccs/tools/compiler/gcc-arm-none-eabi-9-2019-q4-major/bin/../lib/gcc/arm-none-eabi/9.2.1/../../../../arm-none-eabi/lib/thumb/v7e-m/nofp\libnosys.a(_exit.o)
                0x00009f5c                _exit
                0x00009f60                . = ALIGN (0x4)
 *(.ctors)
                0x00009f60                . = ALIGN (0x4)
 *(.dtors)
                0x00009f60                . = ALIGN (0x4)
                0x00009f60                __init_array_start = .
 *(.init_array*)
 .init_array    0x00009f60        0x4 c:/ti/ccs1020/ccs/tools/compiler/gcc-arm-none-eabi-9-2019-q4-major/bin/../lib/gcc/arm-none-eabi/9.2.1/thumb/v7e-m/nofp/crtbegin.o
 .init_array.00000
                0x00009f64        0x4 c:/ti/ccs1020/ccs/tools/compiler/gcc-arm-none-eabi-9-2019-q4-major/bin/../lib/gcc/arm-none-eabi/9.2.1/../../../../arm-none-eabi/lib/thumb/v7e-m/nofp\libg.a(lib_a-__call_atexit.o)
                0x00009f68                __init_array_end = .
 *(.init)
 .init          0x00009f68        0x4 c:/ti/ccs1020/ccs/tools/compiler/gcc-arm-none-eabi-9-2019-q4-major/bin/../lib/gcc/arm-none-eabi/9.2.1/thumb/v7e-m/nofp/crti.o
                0x00009f68                _init
 .init          0x00009f6c        0x8 c:/ti/ccs1020/ccs/tools/compiler/gcc-arm-none-eabi-9-2019-q4-major/bin/../lib/gcc/arm-none-eabi/9.2.1/thumb/v7e-m/nofp/crtn.o
 *(.fini*)
 .fini          0x00009f74        0x4 c:/ti/ccs1020/ccs/tools/compiler/gcc-arm-none-eabi-9-2019-q4-major/bin/../lib/gcc/arm-none-eabi/9.2.1/thumb/v7e-m/nofp/crti.o
                0x00009f74                _fini
 .fini_array    0x00009f78        0x4 c:/ti/ccs1020/ccs/tools/compiler/gcc-arm-none-eabi-9-2019-q4-major/bin/../lib/gcc/arm-none-eabi/9.2.1/thumb/v7e-m/nofp/crtbegin.o
 .fini          0x00009f7c        0x8 c:/ti/ccs1020/ccs/tools/compiler/gcc-arm-none-eabi-9-2019-q4-major/bin/../lib/gcc/arm-none-eabi/9.2.1/thumb/v7e-m/nofp/crtn.o
                [!provide]                PROVIDE (__etext = .)
                [!provide]                PROVIDE (_etext = .)
                [!provide]                PROVIDE (etext = .)

.glue_7         0x00009f84        0x0
 .glue_7        0x00009f84        0x0 linker stubs

.glue_7t        0x00009f84        0x0
 .glue_7t       0x00009f84        0x0 linker stubs

.vfp11_veneer   0x00009f84        0x0
 .vfp11_veneer  0x00009f84        0x0 linker stubs

.v4_bx          0x00009f84        0x0
 .v4_bx         0x00009f84        0x0 linker stubs

.iplt           0x00009f84        0x0
 .iplt          0x00009f84        0x0 c:/ti/ccs1020/ccs/tools/compiler/gcc-arm-none-eabi-9-2019-q4-major/bin/../lib/gcc/arm-none-eabi/9.2.1/thumb/v7e-m/nofp/crtbegin.o

.text:CPUwfi    0x00009f84        0x4
 .text:CPUwfi   0x00009f84        0x4 ../driverlib/ccs/Debug/driverlib.lib(cpu.obj)
                0x00009f84                CPUwfi

.text:CPUprimask
                0x00009f88        0xa
 .text:CPUprimask
                0x00009f88        0xa ../driverlib/ccs/Debug/driverlib.lib(cpu.obj)
                0x00009f88                CPUprimask

.text:CPUcpsie  0x00009f92        0xc
 .text:CPUcpsie
                0x00009f92        0xc ../driverlib/ccs/Debug/driverlib.lib(cpu.obj)
                0x00009f92                CPUcpsie

.text:CPUcpsid  0x00009f9e        0xc
 .text:CPUcpsid
                0x00009f9e        0xc ../driverlib/ccs/Debug/driverlib.lib(cpu.obj)
                0x00009f9e                CPUcpsid

.text:CPUbasepriSet
                0x00009faa        0x6
 .text:CPUbasepriSet
                0x00009faa        0x6 ../driverlib/ccs/Debug/driverlib.lib(cpu.obj)
                0x00009faa                CPUbasepriSet

.text:CPUbasepriGet
                0x00009fb0        0xa
 .text:CPUbasepriGet
                0x00009fb0        0xa ../driverlib/ccs/Debug/driverlib.lib(cpu.obj)
                0x00009fb0                CPUbasepriGet

.text:SysCtlDelay
                0x00009fba        0x6
 .text:SysCtlDelay
                0x00009fba        0x6 ../driverlib/ccs/Debug/driverlib.lib(sysctl.obj)
                0x00009fba                SysCtlDelay

.text:SysCtlVoltageEventStatus
                0x00009fc0        0xc
 .text:SysCtlVoltageEventStatus
                0x00009fc0        0xc ../driverlib/ccs/Debug/driverlib.lib(sysctl.obj)

.text:SysCtlVoltageEventConfig
                0x00009fcc        0xc
 .text:SysCtlVoltageEventConfig
                0x00009fcc        0xc ../driverlib/ccs/Debug/driverlib.lib(sysctl.obj)

.text:SysCtlVoltageEventClear
                0x00009fd8       0x10
 .text:SysCtlVoltageEventClear
                0x00009fd8       0x10 ../driverlib/ccs/Debug/driverlib.lib(sysctl.obj)

.text:SysCtlVCOGet
                0x00009fe8       0x70
 .text:SysCtlVCOGet
                0x00009fe8       0x70 ../driverlib/ccs/Debug/driverlib.lib(sysctl.obj)

.text:SysCtlUSBPLLEnable
                0x0000a058       0x14
 .text:SysCtlUSBPLLEnable
                0x0000a058       0x14 ../driverlib/ccs/Debug/driverlib.lib(sysctl.obj)

.text:SysCtlUSBPLLDisable
                0x0000a06c       0x14
 .text:SysCtlUSBPLLDisable
                0x0000a06c       0x14 ../driverlib/ccs/Debug/driverlib.lib(sysctl.obj)

.text:SysCtlSleepPowerSet
                0x0000a080        0xc
 .text:SysCtlSleepPowerSet
                0x0000a080        0xc ../driverlib/ccs/Debug/driverlib.lib(sysctl.obj)

.text:SysCtlSleep
                0x0000a08c        0x4
 .text:SysCtlSleep
                0x0000a08c        0x4 ../driverlib/ccs/Debug/driverlib.lib(sysctl.obj)

.text:SysCtlSRAMSizeGet
                0x0000a090       0x14
 .text:SysCtlSRAMSizeGet
                0x0000a090       0x14 ../driverlib/ccs/Debug/driverlib.lib(sysctl.obj)

.text:SysCtlResetCauseGet
                0x0000a0a4        0xc
 .text:SysCtlResetCauseGet
                0x0000a0a4        0xc ../driverlib/ccs/Debug/driverlib.lib(sysctl.obj)

.text:SysCtlResetCauseClear
                0x0000a0b0       0x14
 .text:SysCtlResetCauseClear
                0x0000a0b0       0x14 ../driverlib/ccs/Debug/driverlib.lib(sysctl.obj)

.text:SysCtlResetBehaviorSet
                0x0000a0c4        0xc
 .text:SysCtlResetBehaviorSet
                0x0000a0c4        0xc ../driverlib/ccs/Debug/driverlib.lib(sysctl.obj)

.text:SysCtlResetBehaviorGet
                0x0000a0d0        0xc
 .text:SysCtlResetBehaviorGet
                0x0000a0d0        0xc ../driverlib/ccs/Debug/driverlib.lib(sysctl.obj)

.text:SysCtlReset
                0x0000a0dc       0x10
 .text:SysCtlReset
                0x0000a0dc       0x10 ../driverlib/ccs/Debug/driverlib.lib(sysctl.obj)

.text:SysCtlPeripheralSleepEnable
                0x0000a0ec       0x34
 .text:SysCtlPeripheralSleepEnable
                0x0000a0ec       0x34 ../driverlib/ccs/Debug/driverlib.lib(sysctl.obj)

.text:SysCtlPeripheralSleepDisable
                0x0000a120       0x34
 .text:SysCtlPeripheralSleepDisable
                0x0000a120       0x34 ../driverlib/ccs/Debug/driverlib.lib(sysctl.obj)

.text:SysCtlPeripheralReset
                0x0000a154       0x50
 .text:SysCtlPeripheralReset
                0x0000a154       0x50 ../driverlib/ccs/Debug/driverlib.lib(sysctl.obj)

.text:SysCtlPeripheralReady
                0x0000a1a4       0x38
 .text:SysCtlPeripheralReady
                0x0000a1a4       0x38 ../driverlib/ccs/Debug/driverlib.lib(sysctl.obj)

.text:SysCtlPeripheralPresent
                0x0000a1dc       0x38
 .text:SysCtlPeripheralPresent
                0x0000a1dc       0x38 ../driverlib/ccs/Debug/driverlib.lib(sysctl.obj)

.text:SysCtlPeripheralPowerOn
                0x0000a214       0x34
 .text:SysCtlPeripheralPowerOn
                0x0000a214       0x34 ../driverlib/ccs/Debug/driverlib.lib(sysctl.obj)

.text:SysCtlPeripheralPowerOff
                0x0000a248       0x34
 .text:SysCtlPeripheralPowerOff
                0x0000a248       0x34 ../driverlib/ccs/Debug/driverlib.lib(sysctl.obj)

.text:SysCtlPeripheralEnable
                0x0000a27c       0x34
 .text:SysCtlPeripheralEnable
                0x0000a27c       0x34 ../driverlib/ccs/Debug/driverlib.lib(sysctl.obj)

.text:SysCtlPeripheralDisable
                0x0000a2b0       0x34
 .text:SysCtlPeripheralDisable
                0x0000a2b0       0x34 ../driverlib/ccs/Debug/driverlib.lib(sysctl.obj)

.text:SysCtlPeripheralDeepSleepEnable
                0x0000a2e4       0x34
 .text:SysCtlPeripheralDeepSleepEnable
                0x0000a2e4       0x34 ../driverlib/ccs/Debug/driverlib.lib(sysctl.obj)

.text:SysCtlPeripheralDeepSleepDisable
                0x0000a318       0x34
 .text:SysCtlPeripheralDeepSleepDisable
                0x0000a318       0x34 ../driverlib/ccs/Debug/driverlib.lib(sysctl.obj)

.text:SysCtlPeripheralClockGating
                0x0000a34c       0x48
 .text:SysCtlPeripheralClockGating
                0x0000a34c       0x48 ../driverlib/ccs/Debug/driverlib.lib(sysctl.obj)

.text:SysCtlPWMClockSet
                0x0000a394       0x14
 .text:SysCtlPWMClockSet
                0x0000a394       0x14 ../driverlib/ccs/Debug/driverlib.lib(sysctl.obj)

.text:SysCtlPWMClockGet
                0x0000a3a8       0x18
 .text:SysCtlPWMClockGet
                0x0000a3a8       0x18 ../driverlib/ccs/Debug/driverlib.lib(sysctl.obj)

.text:SysCtlPIOSCCalibrate
                0x0000a3c0       0x40
 .text:SysCtlPIOSCCalibrate
                0x0000a3c0       0x40 ../driverlib/ccs/Debug/driverlib.lib(sysctl.obj)

.text:SysCtlNMIStatus
                0x0000a400        0xc
 .text:SysCtlNMIStatus
                0x0000a400        0xc ../driverlib/ccs/Debug/driverlib.lib(sysctl.obj)

.text:SysCtlNMIClear
                0x0000a40c       0x14
 .text:SysCtlNMIClear
                0x0000a40c       0x14 ../driverlib/ccs/Debug/driverlib.lib(sysctl.obj)

.text:SysCtlMOSCConfigSet
                0x0000a420        0xc
 .text:SysCtlMOSCConfigSet
                0x0000a420        0xc ../driverlib/ccs/Debug/driverlib.lib(sysctl.obj)

.text:SysCtlLDOSleepSet
                0x0000a42c        0xc
 .text:SysCtlLDOSleepSet
                0x0000a42c        0xc ../driverlib/ccs/Debug/driverlib.lib(sysctl.obj)

.text:SysCtlLDOSleepGet
                0x0000a438        0xc
 .text:SysCtlLDOSleepGet
                0x0000a438        0xc ../driverlib/ccs/Debug/driverlib.lib(sysctl.obj)

.text:SysCtlLDODeepSleepSet
                0x0000a444        0xc
 .text:SysCtlLDODeepSleepSet
                0x0000a444        0xc ../driverlib/ccs/Debug/driverlib.lib(sysctl.obj)

.text:SysCtlLDODeepSleepGet
                0x0000a450        0xc
 .text:SysCtlLDODeepSleepGet
                0x0000a450        0xc ../driverlib/ccs/Debug/driverlib.lib(sysctl.obj)

.text:SysCtlIntUnregister
                0x0000a45c       0x10
 .text:SysCtlIntUnregister
                0x0000a45c       0x10 ../driverlib/ccs/Debug/driverlib.lib(sysctl.obj)

.text:SysCtlIntStatus
                0x0000a46c       0x18
 .text:SysCtlIntStatus
                0x0000a46c       0x18 ../driverlib/ccs/Debug/driverlib.lib(sysctl.obj)

.text:SysCtlIntRegister
                0x0000a484       0x12
 .text:SysCtlIntRegister
                0x0000a484       0x12 ../driverlib/ccs/Debug/driverlib.lib(sysctl.obj)

.text:SysCtlIntEnable
                0x0000a498       0x10
 .text:SysCtlIntEnable
                0x0000a498       0x10 ../driverlib/ccs/Debug/driverlib.lib(sysctl.obj)

.text:SysCtlIntDisable
                0x0000a4a8       0x14
 .text:SysCtlIntDisable
                0x0000a4a8       0x14 ../driverlib/ccs/Debug/driverlib.lib(sysctl.obj)

.text:SysCtlIntClear
                0x0000a4bc        0xc
 .text:SysCtlIntClear
                0x0000a4bc        0xc ../driverlib/ccs/Debug/driverlib.lib(sysctl.obj)

.text:SysCtlGPIOAHBEnable
                0x0000a4c8       0x1c
 .text:SysCtlGPIOAHBEnable
                0x0000a4c8       0x1c ../driverlib/ccs/Debug/driverlib.lib(sysctl.obj)

.text:SysCtlGPIOAHBDisable
                0x0000a4e4       0x1c
 .text:SysCtlGPIOAHBDisable
                0x0000a4e4       0x1c ../driverlib/ccs/Debug/driverlib.lib(sysctl.obj)

.text:SysCtlFlashSizeGet
                0x0000a500       0x34
 .text:SysCtlFlashSizeGet
                0x0000a500       0x34 ../driverlib/ccs/Debug/driverlib.lib(sysctl.obj)

.text:SysCtlFlashSectorSizeGet
                0x0000a534       0x34
 .text:SysCtlFlashSectorSizeGet
                0x0000a534       0x34 ../driverlib/ccs/Debug/driverlib.lib(sysctl.obj)

.text:SysCtlDeepSleepPowerSet
                0x0000a568        0xc
 .text:SysCtlDeepSleepPowerSet
                0x0000a568        0xc ../driverlib/ccs/Debug/driverlib.lib(sysctl.obj)

.text:SysCtlDeepSleepClockSet
                0x0000a574        0xc
 .text:SysCtlDeepSleepClockSet
                0x0000a574        0xc ../driverlib/ccs/Debug/driverlib.lib(sysctl.obj)

.text:SysCtlDeepSleepClockConfigSet
                0x0000a580       0x64
 .text:SysCtlDeepSleepClockConfigSet
                0x0000a580       0x64 ../driverlib/ccs/Debug/driverlib.lib(sysctl.obj)

.text:SysCtlDeepSleep
                0x0000a5e4       0x20
 .text:SysCtlDeepSleep
                0x0000a5e4       0x20 ../driverlib/ccs/Debug/driverlib.lib(sysctl.obj)

.text:SysCtlClockSet
                0x0000a604       0xf4
 .text:SysCtlClockSet
                0x0000a604       0xf4 ../driverlib/ccs/Debug/driverlib.lib(sysctl.obj)

.text:SysCtlClockOutConfig
                0x0000a6f8       0x14
 .text:SysCtlClockOutConfig
                0x0000a6f8       0x14 ../driverlib/ccs/Debug/driverlib.lib(sysctl.obj)

.text:SysCtlClockGet
                0x0000a70c      0x110
 .text:SysCtlClockGet
                0x0000a70c      0x110 ../driverlib/ccs/Debug/driverlib.lib(sysctl.obj)

.text:_SysCtlMemTimingGet
                0x0000a81c       0x20
 .text:_SysCtlMemTimingGet
                0x0000a81c       0x20 ../driverlib/ccs/Debug/driverlib.lib(sysctl.obj)

.text:_SysCtlFrequencyGet
                0x0000a83c       0x48
 .text:_SysCtlFrequencyGet
                0x0000a83c       0x48 ../driverlib/ccs/Debug/driverlib.lib(sysctl.obj)

.text:SysCtlClockFreqSet
                0x0000a884      0x200
 .text:SysCtlClockFreqSet
                0x0000a884      0x200 ../driverlib/ccs/Debug/driverlib.lib(sysctl.obj)

.text:SysCtlAltClkConfig
                0x0000aa84        0xc
 .text:SysCtlAltClkConfig
                0x0000aa84        0xc ../driverlib/ccs/Debug/driverlib.lib(sysctl.obj)

.rodata         0x0000aa90      0xfdc
 *(.rodata)
 *(.rodata*)
 .rodata.g_ui16CANBitValues
                0x0000aa90       0x20 ./driverlib/can.o
 .rodata.g_pi16MIIClockDiv
                0x0000aab0       0x18 ./driverlib/emac.o
 .rodata.g_pui32FMPPERegs
                0x0000aac8       0x40 ./driverlib/flash.o
 .rodata.g_pui32FMPRERegs
                0x0000ab08       0x40 ./driverlib/flash.o
 .rodata.g_ppui32GPIOIntMapBlizzard
                0x0000ab48       0xc0 ./driverlib/gpio.o
 .rodata.g_ppui32GPIOIntMapSnowflake
                0x0000ac08       0xd8 ./driverlib/gpio.o
 .rodata.g_pui32GPIOBaseAddrs
                0x0000ace0       0x90 ./driverlib/gpio.o
 .rodata.g_ppui32I2CIntMap
                0x0000ad70       0x30 ./driverlib/i2c.o
 .rodata.g_ppui32I2CIntMapSnowflake
                0x0000ada0       0x50 ./driverlib/i2c.o
 .rodata.g_pui32Dii16Regs
                0x0000adf0       0x14 ./driverlib/interrupt.o
 .rodata.g_pui32EnRegs
                0x0000ae04       0x14 ./driverlib/interrupt.o
 .rodata.g_pui32PendRegs
                0x0000ae18       0x14 ./driverlib/interrupt.o
 .rodata.g_pui32Priority
                0x0000ae2c       0x20 ./driverlib/interrupt.o
 .rodata.g_pui32Regs
                0x0000ae4c       0x9c ./driverlib/interrupt.o
 .rodata.g_pui32UnpendRegs
                0x0000aee8       0x14 ./driverlib/interrupt.o
 .rodata.g_ppui32SSIIntMap
                0x0000aefc       0x20 ./driverlib/ssi.o
 .rodata.g_ppui32SSIIntMapSnowflake
                0x0000af1c       0x20 ./driverlib/ssi.o
 .rodata.g_pui16Crc16
                0x0000af3c      0x200 ./driverlib/sw_crc.o
 .rodata.g_pui32Crc32
                0x0000b13c      0x400 ./driverlib/sw_crc.o
 .rodata.g_pui8Crc8CCITT
                0x0000b53c      0x100 ./driverlib/sw_crc.o
 .rodata.g_pppui32XTALtoVCO
                0x0000b63c      0x1b0 ./driverlib/sysctl.o
 .rodata.g_pui32VCOFrequencies
                0x0000b7ec        0x8 ./driverlib/sysctl.o
 .rodata.g_pui32Xtals
                0x0000b7f4       0x6c ./driverlib/sysctl.o
 .rodata.g_sXTALtoMEMTIM
                0x0000b860       0x30 ./driverlib/sysctl.o
 .rodata.g_ppui32TimerIntMap
                0x0000b890       0x60 ./driverlib/timer.o
 .rodata.g_ppui32TimerIntMapSnowflake
                0x0000b8f0       0x40 ./driverlib/timer.o
 .rodata.g_ppui32UARTIntMap
                0x0000b930       0x40 ./driverlib/uart.o
 .rodata.g_ppui32UARTIntMapSnowflake
                0x0000b970       0x40 ./driverlib/uart.o
 .rodata.UARTgets.str1.4
                0x0000b9b0        0x7 ./utils/uartstdio.o
 *fill*         0x0000b9b7        0x1 
 .rodata.UARTvprintf.str1.4
                0x0000b9b8       0x1e ./utils/uartstdio.o
 *fill*         0x0000b9d6        0x2 
 .rodata.g_ui32UARTBase
                0x0000b9d8        0xc ./utils/uartstdio.o
 .rodata.g_ui32UARTPeriph
                0x0000b9e4        0xc ./utils/uartstdio.o
 .rodata.uvsnprintf.str1.4
                0x0000b9f0       0x1a ./utils/ustdlib.o
 .rodata.g_pfExponents
                0x0000b9f0       0x18 ./utils/ustdlib.o
 .rodata.g_psDaysToMonth
                0x0000ba08       0x60 ./utils/ustdlib.o
 .rodata._global_impure_ptr
                0x0000ba68        0x4 c:/ti/ccs1020/ccs/tools/compiler/gcc-arm-none-eabi-9-2019-q4-major/bin/../lib/gcc/arm-none-eabi/9.2.1/../../../../arm-none-eabi/lib/thumb/v7e-m/nofp\libg.a(lib_a-impure.o)
                0x0000ba68                _global_impure_ptr

.eh_frame       0x0000ba6c        0x4
 .eh_frame      0x0000ba6c        0x0 c:/ti/ccs1020/ccs/tools/compiler/gcc-arm-none-eabi-9-2019-q4-major/bin/../lib/gcc/arm-none-eabi/9.2.1/thumb/v7e-m/nofp/crtbegin.o
 .eh_frame      0x0000ba6c        0x4 c:/ti/ccs1020/ccs/tools/compiler/gcc-arm-none-eabi-9-2019-q4-major/bin/../lib/gcc/arm-none-eabi/9.2.1/thumb/v7e-m/nofp/crtend.o

.const:g_pui32Xtals
                0x0000ba70       0x6c
 .const:g_pui32Xtals
                0x0000ba70       0x6c ../driverlib/ccs/Debug/driverlib.lib(sysctl.obj)

.const:g_pppui32XTALtoVCO
                0x0000badc      0x1b0
 .const:g_pppui32XTALtoVCO
                0x0000badc      0x1b0 ../driverlib/ccs/Debug/driverlib.lib(sysctl.obj)

.const:g_sXTALtoMEMTIM
                0x0000bc8c       0x30
 .const:g_sXTALtoMEMTIM
                0x0000bc8c       0x30 ../driverlib/ccs/Debug/driverlib.lib(sysctl.obj)

.const          0x0000bcbc        0x8
 .const         0x0000bcbc        0x8 ../driverlib/ccs/Debug/driverlib.lib(sysctl.obj)

.data           0x20000000      0x84c load address 0x0000bcc4
                0x0000bcc4                __data_load__ = LOADADDR (.data)
                0x20000000                __data_start__ = .
 *(.data)
 .data          0x20000000        0x0 c:/ti/ccs1020/ccs/tools/compiler/gcc-arm-none-eabi-9-2019-q4-major/bin/../lib/gcc/arm-none-eabi/9.2.1/thumb/v7e-m/nofp/crti.o
 .data          0x20000000        0x4 c:/ti/ccs1020/ccs/tools/compiler/gcc-arm-none-eabi-9-2019-q4-major/bin/../lib/gcc/arm-none-eabi/9.2.1/thumb/v7e-m/nofp/crtbegin.o
                0x20000000                __dso_handle
 .data          0x20000004        0x0 c:/ti/ccs1020/ccs/tools/compiler/gcc-arm-none-eabi-9-2019-q4-major/bin/../lib/gcc/arm-none-eabi/9.2.1/../../../../arm-none-eabi/lib/thumb/v7e-m/nofp/crt0.o
 .data          0x20000004        0x0 ./main.o
 .data          0x20000004        0x0 ./tm4c129encpdt_startup_ccs_gcc.o
 .data          0x20000004        0x0 ./driverlib/adc.o
 .data          0x20000004        0x0 ./driverlib/aes.o
 .data          0x20000004        0x0 ./driverlib/can.o
 .data          0x20000004        0x0 ./driverlib/comp.o
 .data          0x20000004        0x0 ./driverlib/cpu.o
 .data          0x20000004        0x0 ./driverlib/crc.o
 .data          0x20000004        0x0 ./driverlib/des.o
 .data          0x20000004        0x0 ./driverlib/eeprom.o
 .data          0x20000004        0x0 ./driverlib/emac.o
 .data          0x20000004        0x0 ./driverlib/flash.o
 .data          0x20000004        0x0 ./driverlib/fpu.o
 .data          0x20000004        0x0 ./driverlib/gpio.o
 .data          0x20000004        0x0 ./driverlib/hibernate.o
 .data          0x20000004        0x0 ./driverlib/i2c.o
 .data          0x20000004        0x0 ./driverlib/interrupt.o
 .data          0x20000004        0x0 ./driverlib/lcd.o
 .data          0x20000004        0x0 ./driverlib/mpu.o
 .data          0x20000004        0x0 ./driverlib/onewire.o
 .data          0x20000004        0x0 ./driverlib/pwm.o
 .data          0x20000004        0x0 ./driverlib/qei.o
 .data          0x20000004        0x0 ./driverlib/shamd5.o
 .data          0x20000004        0x0 ./driverlib/ssi.o
 .data          0x20000004        0x0 ./driverlib/sw_crc.o
 .data          0x20000004        0x0 ./driverlib/sysctl.o
 .data          0x20000004        0x0 ./driverlib/sysexc.o
 .data          0x20000004        0x0 ./driverlib/systick.o
 .data          0x20000004        0x0 ./driverlib/timer.o
 .data          0x20000004        0x0 ./driverlib/uart.o
 .data          0x20000004        0x0 ./driverlib/udma.o
 .data          0x20000004        0x0 ./driverlib/usb.o
 .data          0x20000004        0x0 ./driverlib/watchdog.o
 .data          0x20000004        0x0 ./utils/random.o
 .data          0x20000004        0x0 ./utils/uartstdio.o
 .data          0x20000004        0x0 ./utils/ustdlib.o
 .data          0x20000004        0x0 c:/ti/ccs1020/ccs/tools/compiler/gcc-arm-none-eabi-9-2019-q4-major/bin/../lib/gcc/arm-none-eabi/9.2.1/thumb/v7e-m/nofp\libgcc.a(_aeabi_ldivmod.o)
 .data          0x20000004        0x0 c:/ti/ccs1020/ccs/tools/compiler/gcc-arm-none-eabi-9-2019-q4-major/bin/../lib/gcc/arm-none-eabi/9.2.1/thumb/v7e-m/nofp\libgcc.a(_udivmoddi4.o)
 .data          0x20000004        0x0 c:/ti/ccs1020/ccs/tools/compiler/gcc-arm-none-eabi-9-2019-q4-major/bin/../lib/gcc/arm-none-eabi/9.2.1/thumb/v7e-m/nofp\libgcc.a(unwind-arm.o)
 .data          0x20000004        0x0 c:/ti/ccs1020/ccs/tools/compiler/gcc-arm-none-eabi-9-2019-q4-major/bin/../lib/gcc/arm-none-eabi/9.2.1/thumb/v7e-m/nofp\libgcc.a(libunwind.o)
 .data          0x20000004        0x0 c:/ti/ccs1020/ccs/tools/compiler/gcc-arm-none-eabi-9-2019-q4-major/bin/../lib/gcc/arm-none-eabi/9.2.1/thumb/v7e-m/nofp\libgcc.a(pr-support.o)
 .data          0x20000004        0x0 c:/ti/ccs1020/ccs/tools/compiler/gcc-arm-none-eabi-9-2019-q4-major/bin/../lib/gcc/arm-none-eabi/9.2.1/thumb/v7e-m/nofp\libgcc.a(_dvmd_tls.o)
 .data          0x20000004        0x0 c:/ti/ccs1020/ccs/tools/compiler/gcc-arm-none-eabi-9-2019-q4-major/bin/../lib/gcc/arm-none-eabi/9.2.1/../../../../arm-none-eabi/lib/thumb/v7e-m/nofp\libg.a(lib_a-abort.o)
 .data          0x20000004        0x0 c:/ti/ccs1020/ccs/tools/compiler/gcc-arm-none-eabi-9-2019-q4-major/bin/../lib/gcc/arm-none-eabi/9.2.1/../../../../arm-none-eabi/lib/thumb/v7e-m/nofp\libg.a(lib_a-exit.o)
 .data          0x20000004        0x0 c:/ti/ccs1020/ccs/tools/compiler/gcc-arm-none-eabi-9-2019-q4-major/bin/../lib/gcc/arm-none-eabi/9.2.1/../../../../arm-none-eabi/lib/thumb/v7e-m/nofp\libg.a(lib_a-impure.o)
 .data          0x20000004        0x0 c:/ti/ccs1020/ccs/tools/compiler/gcc-arm-none-eabi-9-2019-q4-major/bin/../lib/gcc/arm-none-eabi/9.2.1/../../../../arm-none-eabi/lib/thumb/v7e-m/nofp\libg.a(lib_a-init.o)
 .data          0x20000004        0x0 c:/ti/ccs1020/ccs/tools/compiler/gcc-arm-none-eabi-9-2019-q4-major/bin/../lib/gcc/arm-none-eabi/9.2.1/../../../../arm-none-eabi/lib/thumb/v7e-m/nofp\libg.a(lib_a-memcpy.o)
 .data          0x20000004        0x0 c:/ti/ccs1020/ccs/tools/compiler/gcc-arm-none-eabi-9-2019-q4-major/bin/../lib/gcc/arm-none-eabi/9.2.1/../../../../arm-none-eabi/lib/thumb/v7e-m/nofp\libg.a(lib_a-memset.o)
 .data          0x20000004        0x0 c:/ti/ccs1020/ccs/tools/compiler/gcc-arm-none-eabi-9-2019-q4-major/bin/../lib/gcc/arm-none-eabi/9.2.1/../../../../arm-none-eabi/lib/thumb/v7e-m/nofp\libg.a(lib_a-signal.o)
 .data          0x20000004        0x0 c:/ti/ccs1020/ccs/tools/compiler/gcc-arm-none-eabi-9-2019-q4-major/bin/../lib/gcc/arm-none-eabi/9.2.1/../../../../arm-none-eabi/lib/thumb/v7e-m/nofp\libg.a(lib_a-signalr.o)
 .data          0x20000004        0x0 c:/ti/ccs1020/ccs/tools/compiler/gcc-arm-none-eabi-9-2019-q4-major/bin/../lib/gcc/arm-none-eabi/9.2.1/../../../../arm-none-eabi/lib/thumb/v7e-m/nofp\libg.a(lib_a-__call_atexit.o)
 .data          0x20000004        0x0 c:/ti/ccs1020/ccs/tools/compiler/gcc-arm-none-eabi-9-2019-q4-major/bin/../lib/gcc/arm-none-eabi/9.2.1/../../../../arm-none-eabi/lib/thumb/v7e-m/nofp\libg.a(lib_a-atexit.o)
 .data          0x20000004        0x0 c:/ti/ccs1020/ccs/tools/compiler/gcc-arm-none-eabi-9-2019-q4-major/bin/../lib/gcc/arm-none-eabi/9.2.1/../../../../arm-none-eabi/lib/thumb/v7e-m/nofp\libg.a(lib_a-fini.o)
 .data          0x20000004        0x0 c:/ti/ccs1020/ccs/tools/compiler/gcc-arm-none-eabi-9-2019-q4-major/bin/../lib/gcc/arm-none-eabi/9.2.1/../../../../arm-none-eabi/lib/thumb/v7e-m/nofp\libg.a(lib_a-lock.o)
 .data          0x20000004        0x0 c:/ti/ccs1020/ccs/tools/compiler/gcc-arm-none-eabi-9-2019-q4-major/bin/../lib/gcc/arm-none-eabi/9.2.1/../../../../arm-none-eabi/lib/thumb/v7e-m/nofp\libg.a(lib_a-mallocr.o)
 .data          0x20000004        0x0 c:/ti/ccs1020/ccs/tools/compiler/gcc-arm-none-eabi-9-2019-q4-major/bin/../lib/gcc/arm-none-eabi/9.2.1/../../../../arm-none-eabi/lib/thumb/v7e-m/nofp\libg.a(lib_a-mlock.o)
 .data          0x20000004        0x0 c:/ti/ccs1020/ccs/tools/compiler/gcc-arm-none-eabi-9-2019-q4-major/bin/../lib/gcc/arm-none-eabi/9.2.1/../../../../arm-none-eabi/lib/thumb/v7e-m/nofp\libg.a(lib_a-reent.o)
 .data          0x20000004        0x0 c:/ti/ccs1020/ccs/tools/compiler/gcc-arm-none-eabi-9-2019-q4-major/bin/../lib/gcc/arm-none-eabi/9.2.1/../../../../arm-none-eabi/lib/thumb/v7e-m/nofp\libg.a(lib_a-sbrkr.o)
 .data          0x20000004        0x0 c:/ti/ccs1020/ccs/tools/compiler/gcc-arm-none-eabi-9-2019-q4-major/bin/../lib/gcc/arm-none-eabi/9.2.1/../../../../arm-none-eabi/lib/thumb/v7e-m/nofp\libg.a(lib_a-__atexit.o)
 .data          0x20000004        0x0 c:/ti/ccs1020/ccs/tools/compiler/gcc-arm-none-eabi-9-2019-q4-major/bin/../lib/gcc/arm-none-eabi/9.2.1/../../../../arm-none-eabi/lib/thumb/v7e-m/nofp\libg.a(lib_a-freer.o)
 .data          0x20000004        0x0 c:/ti/ccs1020/ccs/tools/compiler/gcc-arm-none-eabi-9-2019-q4-major/bin/../lib/gcc/arm-none-eabi/9.2.1/../../../../arm-none-eabi/lib/thumb/v7e-m/nofp\libnosys.a(getpid.o)
 .data          0x20000004        0x0 c:/ti/ccs1020/ccs/tools/compiler/gcc-arm-none-eabi-9-2019-q4-major/bin/../lib/gcc/arm-none-eabi/9.2.1/../../../../arm-none-eabi/lib/thumb/v7e-m/nofp\libnosys.a(kill.o)
 .data          0x20000004        0x0 c:/ti/ccs1020/ccs/tools/compiler/gcc-arm-none-eabi-9-2019-q4-major/bin/../lib/gcc/arm-none-eabi/9.2.1/../../../../arm-none-eabi/lib/thumb/v7e-m/nofp\libnosys.a(sbrk.o)
 .data          0x20000004        0x0 c:/ti/ccs1020/ccs/tools/compiler/gcc-arm-none-eabi-9-2019-q4-major/bin/../lib/gcc/arm-none-eabi/9.2.1/../../../../arm-none-eabi/lib/thumb/v7e-m/nofp\libnosys.a(_exit.o)
 .data          0x20000004        0x0 c:/ti/ccs1020/ccs/tools/compiler/gcc-arm-none-eabi-9-2019-q4-major/bin/../lib/gcc/arm-none-eabi/9.2.1/thumb/v7e-m/nofp/crtend.o
 .data          0x20000004        0x0 c:/ti/ccs1020/ccs/tools/compiler/gcc-arm-none-eabi-9-2019-q4-major/bin/../lib/gcc/arm-none-eabi/9.2.1/thumb/v7e-m/nofp/crtn.o
 *(.data*)
 .data.g_iRandomSeed
                0x20000004        0x4 ./utils/ustdlib.o
 .data._impure_ptr
                0x20000008        0x4 c:/ti/ccs1020/ccs/tools/compiler/gcc-arm-none-eabi-9-2019-q4-major/bin/../lib/gcc/arm-none-eabi/9.2.1/../../../../arm-none-eabi/lib/thumb/v7e-m/nofp\libg.a(lib_a-impure.o)
                0x20000008                _impure_ptr
 *fill*         0x2000000c        0x4 
 .data.impure_data
                0x20000010      0x428 c:/ti/ccs1020/ccs/tools/compiler/gcc-arm-none-eabi-9-2019-q4-major/bin/../lib/gcc/arm-none-eabi/9.2.1/../../../../arm-none-eabi/lib/thumb/v7e-m/nofp\libg.a(lib_a-impure.o)
 .data.__atexit_recursive_mutex
                0x20000438        0x4 c:/ti/ccs1020/ccs/tools/compiler/gcc-arm-none-eabi-9-2019-q4-major/bin/../lib/gcc/arm-none-eabi/9.2.1/../../../../arm-none-eabi/lib/thumb/v7e-m/nofp\libg.a(lib_a-__call_atexit.o)
                0x20000438                __atexit_recursive_mutex
 .data.__malloc_av_
                0x2000043c      0x408 c:/ti/ccs1020/ccs/tools/compiler/gcc-arm-none-eabi-9-2019-q4-major/bin/../lib/gcc/arm-none-eabi/9.2.1/../../../../arm-none-eabi/lib/thumb/v7e-m/nofp\libg.a(lib_a-mallocr.o)
                0x2000043c                __malloc_av_
 .data.__malloc_sbrk_base
                0x20000844        0x4 c:/ti/ccs1020/ccs/tools/compiler/gcc-arm-none-eabi-9-2019-q4-major/bin/../lib/gcc/arm-none-eabi/9.2.1/../../../../arm-none-eabi/lib/thumb/v7e-m/nofp\libg.a(lib_a-mallocr.o)
                0x20000844                __malloc_sbrk_base
 .data.__malloc_trim_threshold
                0x20000848        0x4 c:/ti/ccs1020/ccs/tools/compiler/gcc-arm-none-eabi-9-2019-q4-major/bin/../lib/gcc/arm-none-eabi/9.2.1/../../../../arm-none-eabi/lib/thumb/v7e-m/nofp\libg.a(lib_a-mallocr.o)
                0x20000848                __malloc_trim_threshold
                0x2000084c                . = ALIGN (0x4)
                0x2000084c                __data_end__ = .

.igot.plt       0x2000084c        0x0 load address 0x0000c510
 .igot.plt      0x2000084c        0x0 c:/ti/ccs1020/ccs/tools/compiler/gcc-arm-none-eabi-9-2019-q4-major/bin/../lib/gcc/arm-none-eabi/9.2.1/thumb/v7e-m/nofp/crtbegin.o

vtable          0x20000c00      0x26c load address 0x0000c510
 vtable         0x20000c00      0x26c ./driverlib/interrupt.o

.ARM.exidx      0x0000c77c       0xc8
                0x0000c77c                __exidx_start = .
 *(.ARM.exidx* .gnu.linkonce.armexidx.*)
 .ARM.exidx     0x0000c77c        0x8 c:/ti/ccs1020/ccs/tools/compiler/gcc-arm-none-eabi-9-2019-q4-major/bin/../lib/gcc/arm-none-eabi/9.2.1/../../../../arm-none-eabi/lib/thumb/v7e-m/nofp/crt0.o
 .ARM.exidx.text.main
                0x0000c834       0x10 ./main.o
                                  0x8 (size before relaxing)
 .ARM.exidx     0x0000c784        0x0 c:/ti/ccs1020/ccs/tools/compiler/gcc-arm-none-eabi-9-2019-q4-major/bin/../lib/gcc/arm-none-eabi/9.2.1/thumb/v7e-m/nofp\libgcc.a(_udivmoddi4.o)
                                  0x8 (size before relaxing)
 .ARM.exidx     0x0000c784       0x78 c:/ti/ccs1020/ccs/tools/compiler/gcc-arm-none-eabi-9-2019-q4-major/bin/../lib/gcc/arm-none-eabi/9.2.1/thumb/v7e-m/nofp\libgcc.a(unwind-arm.o)
                                 0xd8 (size before relaxing)
 .ARM.exidx     0x0000c7fc       0x38 c:/ti/ccs1020/ccs/tools/compiler/gcc-arm-none-eabi-9-2019-q4-major/bin/../lib/gcc/arm-none-eabi/9.2.1/thumb/v7e-m/nofp\libgcc.a(pr-support.o)
 .ARM.exidx.text.unlikely
                0x0000c844        0x0 c:/ti/ccs1020/ccs/tools/compiler/gcc-arm-none-eabi-9-2019-q4-major/bin/../lib/gcc/arm-none-eabi/9.2.1/thumb/v7e-m/nofp\libgcc.a(pr-support.o)
                                 0x10 (size before relaxing)
                0x0000c844                __exidx_end = .

.ARM.extab      0x0000c844       0x24
 *(.ARM.extab* .gnu.linkonce.armextab.*)
 .ARM.extab     0x0000c844        0x0 c:/ti/ccs1020/ccs/tools/compiler/gcc-arm-none-eabi-9-2019-q4-major/bin/../lib/gcc/arm-none-eabi/9.2.1/../../../../arm-none-eabi/lib/thumb/v7e-m/nofp/crt0.o
 .ARM.extab.text.main
                0x0000c844        0xc ./main.o
 .ARM.extab     0x0000c850        0x0 c:/ti/ccs1020/ccs/tools/compiler/gcc-arm-none-eabi-9-2019-q4-major/bin/../lib/gcc/arm-none-eabi/9.2.1/thumb/v7e-m/nofp\libgcc.a(_udivmoddi4.o)
 .ARM.extab     0x0000c850        0x0 c:/ti/ccs1020/ccs/tools/compiler/gcc-arm-none-eabi-9-2019-q4-major/bin/../lib/gcc/arm-none-eabi/9.2.1/thumb/v7e-m/nofp\libgcc.a(unwind-arm.o)
 .ARM.extab     0x0000c850       0x18 c:/ti/ccs1020/ccs/tools/compiler/gcc-arm-none-eabi-9-2019-q4-major/bin/../lib/gcc/arm-none-eabi/9.2.1/thumb/v7e-m/nofp\libgcc.a(pr-support.o)
 .ARM.extab.text.unlikely
                0x0000c868        0x0 c:/ti/ccs1020/ccs/tools/compiler/gcc-arm-none-eabi-9-2019-q4-major/bin/../lib/gcc/arm-none-eabi/9.2.1/thumb/v7e-m/nofp\libgcc.a(pr-support.o)

.rel.dyn        0x0000c868        0x0
 .rel.iplt      0x0000c868        0x0 c:/ti/ccs1020/ccs/tools/compiler/gcc-arm-none-eabi-9-2019-q4-major/bin/../lib/gcc/arm-none-eabi/9.2.1/thumb/v7e-m/nofp/crtbegin.o

.bss            0x20000e6c      0x2d4
                0x20000e6c                __bss_start__ = .
 *(.shbss)
 *(.bss)
 .bss           0x20000e6c        0x0 c:/ti/ccs1020/ccs/tools/compiler/gcc-arm-none-eabi-9-2019-q4-major/bin/../lib/gcc/arm-none-eabi/9.2.1/thumb/v7e-m/nofp/crti.o
 .bss           0x20000e6c       0x1c c:/ti/ccs1020/ccs/tools/compiler/gcc-arm-none-eabi-9-2019-q4-major/bin/../lib/gcc/arm-none-eabi/9.2.1/thumb/v7e-m/nofp/crtbegin.o
 .bss           0x20000e88        0x0 c:/ti/ccs1020/ccs/tools/compiler/gcc-arm-none-eabi-9-2019-q4-major/bin/../lib/gcc/arm-none-eabi/9.2.1/../../../../arm-none-eabi/lib/thumb/v7e-m/nofp/crt0.o
 .bss           0x20000e88        0x0 ./main.o
 .bss           0x20000e88        0x0 ./tm4c129encpdt_startup_ccs_gcc.o
 .bss           0x20000e88        0x0 ./driverlib/adc.o
 .bss           0x20000e88        0x0 ./driverlib/aes.o
 .bss           0x20000e88        0x0 ./driverlib/can.o
 .bss           0x20000e88        0x0 ./driverlib/comp.o
 .bss           0x20000e88        0x0 ./driverlib/cpu.o
 .bss           0x20000e88        0x0 ./driverlib/crc.o
 .bss           0x20000e88        0x0 ./driverlib/des.o
 .bss           0x20000e88        0x0 ./driverlib/eeprom.o
 .bss           0x20000e88        0x0 ./driverlib/emac.o
 .bss           0x20000e88        0x0 ./driverlib/flash.o
 .bss           0x20000e88        0x0 ./driverlib/fpu.o
 .bss           0x20000e88        0x0 ./driverlib/gpio.o
 .bss           0x20000e88        0x0 ./driverlib/hibernate.o
 .bss           0x20000e88        0x0 ./driverlib/i2c.o
 .bss           0x20000e88        0x0 ./driverlib/interrupt.o
 .bss           0x20000e88        0x0 ./driverlib/lcd.o
 .bss           0x20000e88        0x0 ./driverlib/mpu.o
 .bss           0x20000e88        0x0 ./driverlib/onewire.o
 .bss           0x20000e88        0x0 ./driverlib/pwm.o
 .bss           0x20000e88        0x0 ./driverlib/qei.o
 .bss           0x20000e88        0x0 ./driverlib/shamd5.o
 .bss           0x20000e88        0x0 ./driverlib/ssi.o
 .bss           0x20000e88        0x0 ./driverlib/sw_crc.o
 .bss           0x20000e88        0x0 ./driverlib/sysctl.o
 .bss           0x20000e88        0x0 ./driverlib/sysexc.o
 .bss           0x20000e88        0x0 ./driverlib/systick.o
 .bss           0x20000e88        0x0 ./driverlib/timer.o
 .bss           0x20000e88        0x0 ./driverlib/uart.o
 .bss           0x20000e88        0x0 ./driverlib/udma.o
 .bss           0x20000e88        0x0 ./driverlib/usb.o
 .bss           0x20000e88        0x0 ./driverlib/watchdog.o
 .bss           0x20000e88        0x0 ./utils/random.o
 .bss           0x20000e88        0x0 ./utils/uartstdio.o
 .bss           0x20000e88        0x0 ./utils/ustdlib.o
 .bss           0x20000e88        0x0 c:/ti/ccs1020/ccs/tools/compiler/gcc-arm-none-eabi-9-2019-q4-major/bin/../lib/gcc/arm-none-eabi/9.2.1/thumb/v7e-m/nofp\libgcc.a(_aeabi_ldivmod.o)
 .bss           0x20000e88        0x0 c:/ti/ccs1020/ccs/tools/compiler/gcc-arm-none-eabi-9-2019-q4-major/bin/../lib/gcc/arm-none-eabi/9.2.1/thumb/v7e-m/nofp\libgcc.a(_udivmoddi4.o)
 .bss           0x20000e88        0x0 c:/ti/ccs1020/ccs/tools/compiler/gcc-arm-none-eabi-9-2019-q4-major/bin/../lib/gcc/arm-none-eabi/9.2.1/thumb/v7e-m/nofp\libgcc.a(unwind-arm.o)
 .bss           0x20000e88        0x0 c:/ti/ccs1020/ccs/tools/compiler/gcc-arm-none-eabi-9-2019-q4-major/bin/../lib/gcc/arm-none-eabi/9.2.1/thumb/v7e-m/nofp\libgcc.a(libunwind.o)
 .bss           0x20000e88        0x0 c:/ti/ccs1020/ccs/tools/compiler/gcc-arm-none-eabi-9-2019-q4-major/bin/../lib/gcc/arm-none-eabi/9.2.1/thumb/v7e-m/nofp\libgcc.a(pr-support.o)
 .bss           0x20000e88        0x0 c:/ti/ccs1020/ccs/tools/compiler/gcc-arm-none-eabi-9-2019-q4-major/bin/../lib/gcc/arm-none-eabi/9.2.1/thumb/v7e-m/nofp\libgcc.a(_dvmd_tls.o)
 .bss           0x20000e88        0x0 c:/ti/ccs1020/ccs/tools/compiler/gcc-arm-none-eabi-9-2019-q4-major/bin/../lib/gcc/arm-none-eabi/9.2.1/../../../../arm-none-eabi/lib/thumb/v7e-m/nofp\libg.a(lib_a-abort.o)
 .bss           0x20000e88        0x0 c:/ti/ccs1020/ccs/tools/compiler/gcc-arm-none-eabi-9-2019-q4-major/bin/../lib/gcc/arm-none-eabi/9.2.1/../../../../arm-none-eabi/lib/thumb/v7e-m/nofp\libg.a(lib_a-exit.o)
 .bss           0x20000e88        0x0 c:/ti/ccs1020/ccs/tools/compiler/gcc-arm-none-eabi-9-2019-q4-major/bin/../lib/gcc/arm-none-eabi/9.2.1/../../../../arm-none-eabi/lib/thumb/v7e-m/nofp\libg.a(lib_a-impure.o)
 .bss           0x20000e88        0x0 c:/ti/ccs1020/ccs/tools/compiler/gcc-arm-none-eabi-9-2019-q4-major/bin/../lib/gcc/arm-none-eabi/9.2.1/../../../../arm-none-eabi/lib/thumb/v7e-m/nofp\libg.a(lib_a-init.o)
 .bss           0x20000e88        0x0 c:/ti/ccs1020/ccs/tools/compiler/gcc-arm-none-eabi-9-2019-q4-major/bin/../lib/gcc/arm-none-eabi/9.2.1/../../../../arm-none-eabi/lib/thumb/v7e-m/nofp\libg.a(lib_a-memcpy.o)
 .bss           0x20000e88        0x0 c:/ti/ccs1020/ccs/tools/compiler/gcc-arm-none-eabi-9-2019-q4-major/bin/../lib/gcc/arm-none-eabi/9.2.1/../../../../arm-none-eabi/lib/thumb/v7e-m/nofp\libg.a(lib_a-memset.o)
 .bss           0x20000e88        0x0 c:/ti/ccs1020/ccs/tools/compiler/gcc-arm-none-eabi-9-2019-q4-major/bin/../lib/gcc/arm-none-eabi/9.2.1/../../../../arm-none-eabi/lib/thumb/v7e-m/nofp\libg.a(lib_a-signal.o)
 .bss           0x20000e88        0x0 c:/ti/ccs1020/ccs/tools/compiler/gcc-arm-none-eabi-9-2019-q4-major/bin/../lib/gcc/arm-none-eabi/9.2.1/../../../../arm-none-eabi/lib/thumb/v7e-m/nofp\libg.a(lib_a-signalr.o)
 .bss           0x20000e88        0x0 c:/ti/ccs1020/ccs/tools/compiler/gcc-arm-none-eabi-9-2019-q4-major/bin/../lib/gcc/arm-none-eabi/9.2.1/../../../../arm-none-eabi/lib/thumb/v7e-m/nofp\libg.a(lib_a-__call_atexit.o)
 .bss           0x20000e88        0x0 c:/ti/ccs1020/ccs/tools/compiler/gcc-arm-none-eabi-9-2019-q4-major/bin/../lib/gcc/arm-none-eabi/9.2.1/../../../../arm-none-eabi/lib/thumb/v7e-m/nofp\libg.a(lib_a-atexit.o)
 .bss           0x20000e88        0x0 c:/ti/ccs1020/ccs/tools/compiler/gcc-arm-none-eabi-9-2019-q4-major/bin/../lib/gcc/arm-none-eabi/9.2.1/../../../../arm-none-eabi/lib/thumb/v7e-m/nofp\libg.a(lib_a-fini.o)
 .bss           0x20000e88        0x0 c:/ti/ccs1020/ccs/tools/compiler/gcc-arm-none-eabi-9-2019-q4-major/bin/../lib/gcc/arm-none-eabi/9.2.1/../../../../arm-none-eabi/lib/thumb/v7e-m/nofp\libg.a(lib_a-lock.o)
 .bss           0x20000e88        0x0 c:/ti/ccs1020/ccs/tools/compiler/gcc-arm-none-eabi-9-2019-q4-major/bin/../lib/gcc/arm-none-eabi/9.2.1/../../../../arm-none-eabi/lib/thumb/v7e-m/nofp\libg.a(lib_a-mallocr.o)
 .bss           0x20000e88        0x0 c:/ti/ccs1020/ccs/tools/compiler/gcc-arm-none-eabi-9-2019-q4-major/bin/../lib/gcc/arm-none-eabi/9.2.1/../../../../arm-none-eabi/lib/thumb/v7e-m/nofp\libg.a(lib_a-mlock.o)
 .bss           0x20000e88        0x0 c:/ti/ccs1020/ccs/tools/compiler/gcc-arm-none-eabi-9-2019-q4-major/bin/../lib/gcc/arm-none-eabi/9.2.1/../../../../arm-none-eabi/lib/thumb/v7e-m/nofp\libg.a(lib_a-reent.o)
 .bss           0x20000e88        0x0 c:/ti/ccs1020/ccs/tools/compiler/gcc-arm-none-eabi-9-2019-q4-major/bin/../lib/gcc/arm-none-eabi/9.2.1/../../../../arm-none-eabi/lib/thumb/v7e-m/nofp\libg.a(lib_a-sbrkr.o)
 .bss           0x20000e88        0x0 c:/ti/ccs1020/ccs/tools/compiler/gcc-arm-none-eabi-9-2019-q4-major/bin/../lib/gcc/arm-none-eabi/9.2.1/../../../../arm-none-eabi/lib/thumb/v7e-m/nofp\libg.a(lib_a-__atexit.o)
 .bss           0x20000e88        0x0 c:/ti/ccs1020/ccs/tools/compiler/gcc-arm-none-eabi-9-2019-q4-major/bin/../lib/gcc/arm-none-eabi/9.2.1/../../../../arm-none-eabi/lib/thumb/v7e-m/nofp\libg.a(lib_a-freer.o)
 .bss           0x20000e88        0x0 c:/ti/ccs1020/ccs/tools/compiler/gcc-arm-none-eabi-9-2019-q4-major/bin/../lib/gcc/arm-none-eabi/9.2.1/../../../../arm-none-eabi/lib/thumb/v7e-m/nofp\libnosys.a(getpid.o)
 .bss           0x20000e88        0x0 c:/ti/ccs1020/ccs/tools/compiler/gcc-arm-none-eabi-9-2019-q4-major/bin/../lib/gcc/arm-none-eabi/9.2.1/../../../../arm-none-eabi/lib/thumb/v7e-m/nofp\libnosys.a(kill.o)
 .bss           0x20000e88        0x0 c:/ti/ccs1020/ccs/tools/compiler/gcc-arm-none-eabi-9-2019-q4-major/bin/../lib/gcc/arm-none-eabi/9.2.1/../../../../arm-none-eabi/lib/thumb/v7e-m/nofp\libnosys.a(sbrk.o)
 .bss           0x20000e88        0x0 c:/ti/ccs1020/ccs/tools/compiler/gcc-arm-none-eabi-9-2019-q4-major/bin/../lib/gcc/arm-none-eabi/9.2.1/../../../../arm-none-eabi/lib/thumb/v7e-m/nofp\libnosys.a(_exit.o)
 .bss           0x20000e88        0x0 c:/ti/ccs1020/ccs/tools/compiler/gcc-arm-none-eabi-9-2019-q4-major/bin/../lib/gcc/arm-none-eabi/9.2.1/thumb/v7e-m/nofp/crtend.o
 .bss           0x20000e88        0x0 c:/ti/ccs1020/ccs/tools/compiler/gcc-arm-none-eabi-9-2019-q4-major/bin/../lib/gcc/arm-none-eabi/9.2.1/thumb/v7e-m/nofp/crtn.o
 *(.bss.*)
 .bss.clk_rate_hz
                0x20000e88        0x4 ./main.o
                0x20000e88                clk_rate_hz
 .bss.pui32Stack
                0x20000e8c      0x200 ./tm4c129encpdt_startup_ccs_gcc.o
 .bss.g_pui8OversampleFactor
                0x2000108c        0x6 ./driverlib/adc.o
 *fill*         0x20001092        0x2 
 .bss.g_pui32RandomEntropy
                0x20001094       0x40 ./utils/random.o
 .bss.g_ui32RandomIndex
                0x200010d4        0x4 ./utils/random.o
 .bss.bLastWasCR.5884
                0x200010d8        0x1 ./utils/uartstdio.o
 *fill*         0x200010d9        0x3 
 .bss.g_ui32Base
                0x200010dc        0x4 ./utils/uartstdio.o
 .bss.__malloc_current_mallinfo
                0x200010e0       0x28 c:/ti/ccs1020/ccs/tools/compiler/gcc-arm-none-eabi-9-2019-q4-major/bin/../lib/gcc/arm-none-eabi/9.2.1/../../../../arm-none-eabi/lib/thumb/v7e-m/nofp\libg.a(lib_a-mallocr.o)
                0x200010e0                __malloc_current_mallinfo
 .bss.__malloc_max_sbrked_mem
                0x20001108        0x4 c:/ti/ccs1020/ccs/tools/compiler/gcc-arm-none-eabi-9-2019-q4-major/bin/../lib/gcc/arm-none-eabi/9.2.1/../../../../arm-none-eabi/lib/thumb/v7e-m/nofp\libg.a(lib_a-mallocr.o)
                0x20001108                __malloc_max_sbrked_mem
 .bss.__malloc_max_total_mem
                0x2000110c        0x4 c:/ti/ccs1020/ccs/tools/compiler/gcc-arm-none-eabi-9-2019-q4-major/bin/../lib/gcc/arm-none-eabi/9.2.1/../../../../arm-none-eabi/lib/thumb/v7e-m/nofp\libg.a(lib_a-mallocr.o)
                0x2000110c                __malloc_max_total_mem
 .bss.__malloc_top_pad
                0x20001110        0x4 c:/ti/ccs1020/ccs/tools/compiler/gcc-arm-none-eabi-9-2019-q4-major/bin/../lib/gcc/arm-none-eabi/9.2.1/../../../../arm-none-eabi/lib/thumb/v7e-m/nofp\libg.a(lib_a-mallocr.o)
                0x20001110                __malloc_top_pad
 .bss.heap_end.4144
                0x20001114        0x4 c:/ti/ccs1020/ccs/tools/compiler/gcc-arm-none-eabi-9-2019-q4-major/bin/../lib/gcc/arm-none-eabi/9.2.1/../../../../arm-none-eabi/lib/thumb/v7e-m/nofp\libnosys.a(sbrk.o)
 *(COMMON)
 COMMON         0x20001118       0x21 c:/ti/ccs1020/ccs/tools/compiler/gcc-arm-none-eabi-9-2019-q4-major/bin/../lib/gcc/arm-none-eabi/9.2.1/../../../../arm-none-eabi/lib/thumb/v7e-m/nofp\libg.a(lib_a-lock.o)
                0x20001118                __lock___atexit_recursive_mutex
                0x2000111c                __lock___arc4random_mutex
                0x20001120                __lock___env_recursive_mutex
                0x20001124                __lock___sinit_recursive_mutex
                0x20001128                __lock___malloc_recursive_mutex
                0x2000112c                __lock___at_quick_exit_mutex
                0x20001130                __lock___dd_hash_mutex
                0x20001134                __lock___tz_mutex
                0x20001138                __lock___sfp_recursive_mutex
 *fill*         0x20001139        0x3 
 COMMON         0x2000113c        0x4 c:/ti/ccs1020/ccs/tools/compiler/gcc-arm-none-eabi-9-2019-q4-major/bin/../lib/gcc/arm-none-eabi/9.2.1/../../../../arm-none-eabi/lib/thumb/v7e-m/nofp\libg.a(lib_a-reent.o)
                0x2000113c                errno
                0x20001140                . = ALIGN (0x4)
                0x20001140                __bss_end__ = .

.heap           0x20001140        0x0
                0x20001140                __heap_start__ = .
                0x20001140                end = __heap_start__
                0x20001140                _end = end
                0x20001140                __end = end
 *(.heap)
                0x20001140                __heap_end__ = .
                0x20001140                __HeapLimit = __heap_end__

.stack          0x20001140        0x0
                0x20001140                _stack = .
                0x20001140                __stack = .
 *(.stack)
LOAD ../driverlib/ccs/Debug/driverlib.lib
LOAD ../driverlib/rvmdk/driverlib.lib
LOAD ../driverlib/ewarm/Exe/driverlib.a
LOAD ../driverlib/gcc/libdriver.a
START GROUP
LOAD c:/ti/ccs1020/ccs/tools/compiler/gcc-arm-none-eabi-9-2019-q4-major/bin/../lib/gcc/arm-none-eabi/9.2.1/thumb/v7e-m/nofp\libgcc.a
LOAD c:/ti/ccs1020/ccs/tools/compiler/gcc-arm-none-eabi-9-2019-q4-major/bin/../lib/gcc/arm-none-eabi/9.2.1/../../../../arm-none-eabi/lib/thumb/v7e-m/nofp\libg.a
LOAD c:/ti/ccs1020/ccs/tools/compiler/gcc-arm-none-eabi-9-2019-q4-major/bin/../lib/gcc/arm-none-eabi/9.2.1/../../../../arm-none-eabi/lib/thumb/v7e-m/nofp\libc.a
END GROUP
START GROUP
LOAD c:/ti/ccs1020/ccs/tools/compiler/gcc-arm-none-eabi-9-2019-q4-major/bin/../lib/gcc/arm-none-eabi/9.2.1/thumb/v7e-m/nofp\libgcc.a
LOAD c:/ti/ccs1020/ccs/tools/compiler/gcc-arm-none-eabi-9-2019-q4-major/bin/../lib/gcc/arm-none-eabi/9.2.1/../../../../arm-none-eabi/lib/thumb/v7e-m/nofp\libc.a
LOAD c:/ti/ccs1020/ccs/tools/compiler/gcc-arm-none-eabi-9-2019-q4-major/bin/../lib/gcc/arm-none-eabi/9.2.1/../../../../arm-none-eabi/lib/thumb/v7e-m/nofp\libnosys.a
END GROUP
LOAD c:/ti/ccs1020/ccs/tools/compiler/gcc-arm-none-eabi-9-2019-q4-major/bin/../lib/gcc/arm-none-eabi/9.2.1/thumb/v7e-m/nofp/crtend.o
LOAD c:/ti/ccs1020/ccs/tools/compiler/gcc-arm-none-eabi-9-2019-q4-major/bin/../lib/gcc/arm-none-eabi/9.2.1/thumb/v7e-m/nofp/crtn.o
OUTPUT(mcu_net.out elf32-littlearm)

.ARM.attributes
                0x00000000       0x2e
 .ARM.attributes
                0x00000000       0x1e c:/ti/ccs1020/ccs/tools/compiler/gcc-arm-none-eabi-9-2019-q4-major/bin/../lib/gcc/arm-none-eabi/9.2.1/thumb/v7e-m/nofp/crti.o
 .ARM.attributes
                0x0000001e       0x2e c:/ti/ccs1020/ccs/tools/compiler/gcc-arm-none-eabi-9-2019-q4-major/bin/../lib/gcc/arm-none-eabi/9.2.1/thumb/v7e-m/nofp/crtbegin.o
 .ARM.attributes
                0x0000004c       0x1c c:/ti/ccs1020/ccs/tools/compiler/gcc-arm-none-eabi-9-2019-q4-major/bin/../lib/gcc/arm-none-eabi/9.2.1/../../../../arm-none-eabi/lib/thumb/v7e-m/nofp/crt0.o
 .ARM.attributes
                0x00000068       0x34 ./main.o
 .ARM.attributes
                0x0000009c       0x34 ./tm4c129encpdt_startup_ccs_gcc.o
 .ARM.attributes
                0x000000d0       0x34 ./driverlib/adc.o
 .ARM.attributes
                0x00000104       0x34 ./driverlib/aes.o
 .ARM.attributes
                0x00000138       0x34 ./driverlib/can.o
 .ARM.attributes
                0x0000016c       0x34 ./driverlib/comp.o
 .ARM.attributes
                0x000001a0       0x39 ./driverlib/cpu.o
 .ARM.attributes
                0x000001d9       0x34 ./driverlib/crc.o
 .ARM.attributes
                0x0000020d       0x34 ./driverlib/des.o
 .ARM.attributes
                0x00000241       0x34 ./driverlib/eeprom.o
 .ARM.attributes
                0x00000275       0x34 ./driverlib/emac.o
 .ARM.attributes
                0x000002a9       0x34 ./driverlib/flash.o
 .ARM.attributes
                0x000002dd       0x34 ./driverlib/fpu.o
 .ARM.attributes
                0x00000311       0x34 ./driverlib/gpio.o
 .ARM.attributes
                0x00000345       0x34 ./driverlib/hibernate.o
 .ARM.attributes
                0x00000379       0x34 ./driverlib/i2c.o
 .ARM.attributes
                0x000003ad       0x34 ./driverlib/interrupt.o
 .ARM.attributes
                0x000003e1       0x34 ./driverlib/lcd.o
 .ARM.attributes
                0x00000415       0x34 ./driverlib/mpu.o
 .ARM.attributes
                0x00000449       0x34 ./driverlib/onewire.o
 .ARM.attributes
                0x0000047d       0x34 ./driverlib/pwm.o
 .ARM.attributes
                0x000004b1       0x34 ./driverlib/qei.o
 .ARM.attributes
                0x000004e5       0x34 ./driverlib/shamd5.o
 .ARM.attributes
                0x00000519       0x34 ./driverlib/ssi.o
 .ARM.attributes
                0x0000054d       0x34 ./driverlib/sw_crc.o
 .ARM.attributes
                0x00000581       0x34 ./driverlib/sysctl.o
 .ARM.attributes
                0x000005b5       0x34 ./driverlib/sysexc.o
 .ARM.attributes
                0x000005e9       0x34 ./driverlib/systick.o
 .ARM.attributes
                0x0000061d       0x34 ./driverlib/timer.o
 .ARM.attributes
                0x00000651       0x34 ./driverlib/uart.o
 .ARM.attributes
                0x00000685       0x34 ./driverlib/udma.o
 .ARM.attributes
                0x000006b9       0x34 ./driverlib/usb.o
 .ARM.attributes
                0x000006ed       0x34 ./driverlib/watchdog.o
 .ARM.attributes
                0x00000721       0x34 ./utils/random.o
 .ARM.attributes
                0x00000755       0x34 ./utils/uartstdio.o
 .ARM.attributes
                0x00000789       0x34 ./utils/ustdlib.o
 .ARM.attributes
                0x000007bd       0xa7 ../driverlib/ccs/Debug/driverlib.lib(cpu.obj)
 .ARM.attributes
                0x00000864       0xa7 ../driverlib/ccs/Debug/driverlib.lib(sysctl.obj)
 .ARM.attributes
                0x0000090b       0x1e c:/ti/ccs1020/ccs/tools/compiler/gcc-arm-none-eabi-9-2019-q4-major/bin/../lib/gcc/arm-none-eabi/9.2.1/thumb/v7e-m/nofp\libgcc.a(_aeabi_ldivmod.o)
 .ARM.attributes
                0x00000929       0x2e c:/ti/ccs1020/ccs/tools/compiler/gcc-arm-none-eabi-9-2019-q4-major/bin/../lib/gcc/arm-none-eabi/9.2.1/thumb/v7e-m/nofp\libgcc.a(_udivmoddi4.o)
 .ARM.attributes
                0x00000957       0x2e c:/ti/ccs1020/ccs/tools/compiler/gcc-arm-none-eabi-9-2019-q4-major/bin/../lib/gcc/arm-none-eabi/9.2.1/thumb/v7e-m/nofp\libgcc.a(unwind-arm.o)
 .ARM.attributes
                0x00000985       0x1e c:/ti/ccs1020/ccs/tools/compiler/gcc-arm-none-eabi-9-2019-q4-major/bin/../lib/gcc/arm-none-eabi/9.2.1/thumb/v7e-m/nofp\libgcc.a(libunwind.o)
 .ARM.attributes
                0x000009a3       0x2e c:/ti/ccs1020/ccs/tools/compiler/gcc-arm-none-eabi-9-2019-q4-major/bin/../lib/gcc/arm-none-eabi/9.2.1/thumb/v7e-m/nofp\libgcc.a(pr-support.o)
 .ARM.attributes
                0x000009d1       0x1e c:/ti/ccs1020/ccs/tools/compiler/gcc-arm-none-eabi-9-2019-q4-major/bin/../lib/gcc/arm-none-eabi/9.2.1/thumb/v7e-m/nofp\libgcc.a(_dvmd_tls.o)
 .ARM.attributes
                0x000009ef       0x2e c:/ti/ccs1020/ccs/tools/compiler/gcc-arm-none-eabi-9-2019-q4-major/bin/../lib/gcc/arm-none-eabi/9.2.1/../../../../arm-none-eabi/lib/thumb/v7e-m/nofp\libg.a(lib_a-abort.o)
 .ARM.attributes
                0x00000a1d       0x2e c:/ti/ccs1020/ccs/tools/compiler/gcc-arm-none-eabi-9-2019-q4-major/bin/../lib/gcc/arm-none-eabi/9.2.1/../../../../arm-none-eabi/lib/thumb/v7e-m/nofp\libg.a(lib_a-exit.o)
 .ARM.attributes
                0x00000a4b       0x2e c:/ti/ccs1020/ccs/tools/compiler/gcc-arm-none-eabi-9-2019-q4-major/bin/../lib/gcc/arm-none-eabi/9.2.1/../../../../arm-none-eabi/lib/thumb/v7e-m/nofp\libg.a(lib_a-impure.o)
 .ARM.attributes
                0x00000a79       0x2e c:/ti/ccs1020/ccs/tools/compiler/gcc-arm-none-eabi-9-2019-q4-major/bin/../lib/gcc/arm-none-eabi/9.2.1/../../../../arm-none-eabi/lib/thumb/v7e-m/nofp\libg.a(lib_a-init.o)
 .ARM.attributes
                0x00000aa7       0x1c c:/ti/ccs1020/ccs/tools/compiler/gcc-arm-none-eabi-9-2019-q4-major/bin/../lib/gcc/arm-none-eabi/9.2.1/../../../../arm-none-eabi/lib/thumb/v7e-m/nofp\libg.a(lib_a-memcpy.o)
 .ARM.attributes
                0x00000ac3       0x2e c:/ti/ccs1020/ccs/tools/compiler/gcc-arm-none-eabi-9-2019-q4-major/bin/../lib/gcc/arm-none-eabi/9.2.1/../../../../arm-none-eabi/lib/thumb/v7e-m/nofp\libg.a(lib_a-memset.o)
 .ARM.attributes
                0x00000af1       0x2e c:/ti/ccs1020/ccs/tools/compiler/gcc-arm-none-eabi-9-2019-q4-major/bin/../lib/gcc/arm-none-eabi/9.2.1/../../../../arm-none-eabi/lib/thumb/v7e-m/nofp\libg.a(lib_a-signal.o)
 .ARM.attributes
                0x00000b1f       0x2e c:/ti/ccs1020/ccs/tools/compiler/gcc-arm-none-eabi-9-2019-q4-major/bin/../lib/gcc/arm-none-eabi/9.2.1/../../../../arm-none-eabi/lib/thumb/v7e-m/nofp\libg.a(lib_a-signalr.o)
 .ARM.attributes
                0x00000b4d       0x2e c:/ti/ccs1020/ccs/tools/compiler/gcc-arm-none-eabi-9-2019-q4-major/bin/../lib/gcc/arm-none-eabi/9.2.1/../../../../arm-none-eabi/lib/thumb/v7e-m/nofp\libg.a(lib_a-__call_atexit.o)
 .ARM.attributes
                0x00000b7b       0x2e c:/ti/ccs1020/ccs/tools/compiler/gcc-arm-none-eabi-9-2019-q4-major/bin/../lib/gcc/arm-none-eabi/9.2.1/../../../../arm-none-eabi/lib/thumb/v7e-m/nofp\libg.a(lib_a-atexit.o)
 .ARM.attributes
                0x00000ba9       0x2e c:/ti/ccs1020/ccs/tools/compiler/gcc-arm-none-eabi-9-2019-q4-major/bin/../lib/gcc/arm-none-eabi/9.2.1/../../../../arm-none-eabi/lib/thumb/v7e-m/nofp\libg.a(lib_a-fini.o)
 .ARM.attributes
                0x00000bd7       0x2e c:/ti/ccs1020/ccs/tools/compiler/gcc-arm-none-eabi-9-2019-q4-major/bin/../lib/gcc/arm-none-eabi/9.2.1/../../../../arm-none-eabi/lib/thumb/v7e-m/nofp\libg.a(lib_a-lock.o)
 .ARM.attributes
                0x00000c05       0x2e c:/ti/ccs1020/ccs/tools/compiler/gcc-arm-none-eabi-9-2019-q4-major/bin/../lib/gcc/arm-none-eabi/9.2.1/../../../../arm-none-eabi/lib/thumb/v7e-m/nofp\libg.a(lib_a-mallocr.o)
 .ARM.attributes
                0x00000c33       0x2e c:/ti/ccs1020/ccs/tools/compiler/gcc-arm-none-eabi-9-2019-q4-major/bin/../lib/gcc/arm-none-eabi/9.2.1/../../../../arm-none-eabi/lib/thumb/v7e-m/nofp\libg.a(lib_a-mlock.o)
 .ARM.attributes
                0x00000c61       0x2e c:/ti/ccs1020/ccs/tools/compiler/gcc-arm-none-eabi-9-2019-q4-major/bin/../lib/gcc/arm-none-eabi/9.2.1/../../../../arm-none-eabi/lib/thumb/v7e-m/nofp\libg.a(lib_a-reent.o)
 .ARM.attributes
                0x00000c8f       0x2e c:/ti/ccs1020/ccs/tools/compiler/gcc-arm-none-eabi-9-2019-q4-major/bin/../lib/gcc/arm-none-eabi/9.2.1/../../../../arm-none-eabi/lib/thumb/v7e-m/nofp\libg.a(lib_a-sbrkr.o)
 .ARM.attributes
                0x00000cbd       0x2e c:/ti/ccs1020/ccs/tools/compiler/gcc-arm-none-eabi-9-2019-q4-major/bin/../lib/gcc/arm-none-eabi/9.2.1/../../../../arm-none-eabi/lib/thumb/v7e-m/nofp\libg.a(lib_a-__atexit.o)
 .ARM.attributes
                0x00000ceb       0x2e c:/ti/ccs1020/ccs/tools/compiler/gcc-arm-none-eabi-9-2019-q4-major/bin/../lib/gcc/arm-none-eabi/9.2.1/../../../../arm-none-eabi/lib/thumb/v7e-m/nofp\libg.a(lib_a-freer.o)
 .ARM.attributes
                0x00000d19       0x2e c:/ti/ccs1020/ccs/tools/compiler/gcc-arm-none-eabi-9-2019-q4-major/bin/../lib/gcc/arm-none-eabi/9.2.1/../../../../arm-none-eabi/lib/thumb/v7e-m/nofp\libnosys.a(getpid.o)
 .ARM.attributes
                0x00000d47       0x2e c:/ti/ccs1020/ccs/tools/compiler/gcc-arm-none-eabi-9-2019-q4-major/bin/../lib/gcc/arm-none-eabi/9.2.1/../../../../arm-none-eabi/lib/thumb/v7e-m/nofp\libnosys.a(kill.o)
 .ARM.attributes
                0x00000d75       0x2e c:/ti/ccs1020/ccs/tools/compiler/gcc-arm-none-eabi-9-2019-q4-major/bin/../lib/gcc/arm-none-eabi/9.2.1/../../../../arm-none-eabi/lib/thumb/v7e-m/nofp\libnosys.a(sbrk.o)
 .ARM.attributes
                0x00000da3       0x2e c:/ti/ccs1020/ccs/tools/compiler/gcc-arm-none-eabi-9-2019-q4-major/bin/../lib/gcc/arm-none-eabi/9.2.1/../../../../arm-none-eabi/lib/thumb/v7e-m/nofp\libnosys.a(_exit.o)
 .ARM.attributes
                0x00000dd1       0x2e c:/ti/ccs1020/ccs/tools/compiler/gcc-arm-none-eabi-9-2019-q4-major/bin/../lib/gcc/arm-none-eabi/9.2.1/thumb/v7e-m/nofp/crtend.o
 .ARM.attributes
                0x00000dff       0x1e c:/ti/ccs1020/ccs/tools/compiler/gcc-arm-none-eabi-9-2019-q4-major/bin/../lib/gcc/arm-none-eabi/9.2.1/thumb/v7e-m/nofp/crtn.o

.comment        0x00000000       0x79
 .comment       0x00000000       0x79 ./main.o
                                 0x7a (size before relaxing)
 .comment       0x00000079       0x7a ./tm4c129encpdt_startup_ccs_gcc.o
 .comment       0x00000079       0x7a ./driverlib/adc.o
 .comment       0x00000079       0x7a ./driverlib/aes.o
 .comment       0x00000079       0x7a ./driverlib/can.o
 .comment       0x00000079       0x7a ./driverlib/comp.o
 .comment       0x00000079       0x7a ./driverlib/cpu.o
 .comment       0x00000079       0x7a ./driverlib/crc.o
 .comment       0x00000079       0x7a ./driverlib/des.o
 .comment       0x00000079       0x7a ./driverlib/eeprom.o
 .comment       0x00000079       0x7a ./driverlib/emac.o
 .comment       0x00000079       0x7a ./driverlib/flash.o
 .comment       0x00000079       0x7a ./driverlib/fpu.o
 .comment       0x00000079       0x7a ./driverlib/gpio.o
 .comment       0x00000079       0x7a ./driverlib/hibernate.o
 .comment       0x00000079       0x7a ./driverlib/i2c.o
 .comment       0x00000079       0x7a ./driverlib/interrupt.o
 .comment       0x00000079       0x7a ./driverlib/lcd.o
 .comment       0x00000079       0x7a ./driverlib/mpu.o
 .comment       0x00000079       0x7a ./driverlib/onewire.o
 .comment       0x00000079       0x7a ./driverlib/pwm.o
 .comment       0x00000079       0x7a ./driverlib/qei.o
 .comment       0x00000079       0x7a ./driverlib/shamd5.o
 .comment       0x00000079       0x7a ./driverlib/ssi.o
 .comment       0x00000079       0x7a ./driverlib/sw_crc.o
 .comment       0x00000079       0x7a ./driverlib/sysctl.o
 .comment       0x00000079       0x7a ./driverlib/sysexc.o
 .comment       0x00000079       0x7a ./driverlib/systick.o
 .comment       0x00000079       0x7a ./driverlib/timer.o
 .comment       0x00000079       0x7a ./driverlib/uart.o
 .comment       0x00000079       0x7a ./driverlib/udma.o
 .comment       0x00000079       0x7a ./driverlib/usb.o
 .comment       0x00000079       0x7a ./driverlib/watchdog.o
 .comment       0x00000079       0x7a ./utils/random.o
 .comment       0x00000079       0x7a ./utils/uartstdio.o
 .comment       0x00000079       0x7a ./utils/ustdlib.o

.TI.symbol.alias
                0x00000000       0x1a
 .TI.symbol.alias
                0x00000000        0x9 ../driverlib/ccs/Debug/driverlib.lib(cpu.obj)
 .TI.symbol.alias
                0x00000009       0x11 ../driverlib/ccs/Debug/driverlib.lib(sysctl.obj)

.TI.section.flags
                0x00000000       0x34
 .TI.section.flags
                0x00000000       0x1a ../driverlib/ccs/Debug/driverlib.lib(cpu.obj)
 .TI.section.flags
                0x0000001a       0x1a ../driverlib/ccs/Debug/driverlib.lib(sysctl.obj)

.debug_info     0x00000000    0x1c51c
 .debug_info    0x00000000      0x3f4 ./main.o
 .debug_info    0x000003f4      0x19c ./tm4c129encpdt_startup_ccs_gcc.o
 .debug_info    0x00000590      0xc55 ./driverlib/adc.o
 .debug_info    0x000011e5      0x75b ./driverlib/aes.o
 .debug_info    0x00001940      0x9a5 ./driverlib/can.o
 .debug_info    0x000022e5      0x2be ./driverlib/comp.o
 .debug_info    0x000025a3       0x64 ./driverlib/cpu.o
 .debug_info    0x00002607      0x1f3 ./driverlib/crc.o
 .debug_info    0x000027fa      0x4de ./driverlib/des.o
 .debug_info    0x00002cd8      0x48e ./driverlib/eeprom.o
 .debug_info    0x00003166     0x1694 ./driverlib/emac.o
 .debug_info    0x000047fa      0x501 ./driverlib/flash.o
 .debug_info    0x00004cfb      0x186 ./driverlib/fpu.o
 .debug_info    0x00004e81      0xe64 ./driverlib/gpio.o
 .debug_info    0x00005ce5     0x12f0 ./driverlib/hibernate.o
 .debug_info    0x00006fd5      0xcf8 ./driverlib/i2c.o
 .debug_info    0x00007ccd      0x497 ./driverlib/interrupt.o
 .debug_info    0x00008164      0xa80 ./driverlib/lcd.o
 .debug_info    0x00008be4      0x203 ./driverlib/mpu.o
 .debug_info    0x00008de7      0x417 ./driverlib/onewire.o
 .debug_info    0x000091fe      0xb7a ./driverlib/pwm.o
 .debug_info    0x00009d78      0x4f4 ./driverlib/qei.o
 .debug_info    0x0000a26c      0x60d ./driverlib/shamd5.o
 .debug_info    0x0000a879      0x707 ./driverlib/ssi.o
 .debug_info    0x0000af80      0x33b ./driverlib/sw_crc.o
 .debug_info    0x0000b2bb      0xca7 ./driverlib/sysctl.o
 .debug_info    0x0000bf62      0x1bd ./driverlib/sysexc.o
 .debug_info    0x0000c11f      0x173 ./driverlib/systick.o
 .debug_info    0x0000c292      0xb81 ./driverlib/timer.o
 .debug_info    0x0000ce13      0xbfd ./driverlib/uart.o
 .debug_info    0x0000da10      0x67b ./driverlib/udma.o
 .debug_info    0x0000e08b     0x1bc6 ./driverlib/usb.o
 .debug_info    0x0000fc51      0x3c3 ./driverlib/watchdog.o
 .debug_info    0x00010014      0xa60 ./utils/random.o
 .debug_info    0x00010a74      0x3bc ./utils/uartstdio.o
 .debug_info    0x00010e30     0x115e ./utils/ustdlib.o
 .debug_info    0x00011f8e      0x128 ../driverlib/ccs/Debug/driverlib.lib(cpu.obj)
 .debug_info    0x000120b6      0x20a ../driverlib/ccs/Debug/driverlib.lib(cpu.obj)
 .debug_info    0x000122c0      0x213 ../driverlib/ccs/Debug/driverlib.lib(cpu.obj)
 .debug_info    0x000124d3      0x212 ../driverlib/ccs/Debug/driverlib.lib(cpu.obj)
 .debug_info    0x000126e5      0x20f ../driverlib/ccs/Debug/driverlib.lib(cpu.obj)
 .debug_info    0x000128f4      0x23d ../driverlib/ccs/Debug/driverlib.lib(cpu.obj)
 .debug_info    0x00012b31      0x21c ../driverlib/ccs/Debug/driverlib.lib(cpu.obj)
 .debug_info    0x00012d4d       0x84 ../driverlib/ccs/Debug/driverlib.lib(cpu.obj)
                0x00012d4d                __TI_DW.debug_info.$base_types.c8c38483d660372cd06395436475430b
 .debug_info    0x00012dd1      0x18b ../driverlib/ccs/Debug/driverlib.lib(cpu.obj)
                0x00012dd1                __TI_DW.debug_info.stdint.h.066348b889ca56249dcd34de01246954
 .debug_info    0x00012f5c       0x2d ../driverlib/ccs/Debug/driverlib.lib(cpu.obj)
                0x00012f5c                __TI_DW.debug_info.cpu.c.2c258bef3018e3b4a3c5a50564de3197
 .debug_info    0x00012f89      0x298 ../driverlib/ccs/Debug/driverlib.lib(sysctl.obj)
 .debug_info    0x00013221      0x14d ../driverlib/ccs/Debug/driverlib.lib(sysctl.obj)
 .debug_info    0x0001336e      0x159 ../driverlib/ccs/Debug/driverlib.lib(sysctl.obj)
 .debug_info    0x000134c7      0x153 ../driverlib/ccs/Debug/driverlib.lib(sysctl.obj)
 .debug_info    0x0001361a      0x160 ../driverlib/ccs/Debug/driverlib.lib(sysctl.obj)
 .debug_info    0x0001377a      0x23b ../driverlib/ccs/Debug/driverlib.lib(sysctl.obj)
 .debug_info    0x000139b5      0x271 ../driverlib/ccs/Debug/driverlib.lib(sysctl.obj)
 .debug_info    0x00013c26      0x26f ../driverlib/ccs/Debug/driverlib.lib(sysctl.obj)
 .debug_info    0x00013e95      0x320 ../driverlib/ccs/Debug/driverlib.lib(sysctl.obj)
 .debug_info    0x000141b5      0x22b ../driverlib/ccs/Debug/driverlib.lib(sysctl.obj)
 .debug_info    0x000143e0      0x22d ../driverlib/ccs/Debug/driverlib.lib(sysctl.obj)
 .debug_info    0x0001460d      0x267 ../driverlib/ccs/Debug/driverlib.lib(sysctl.obj)
 .debug_info    0x00014874      0x225 ../driverlib/ccs/Debug/driverlib.lib(sysctl.obj)
 .debug_info    0x00014a99      0x22d ../driverlib/ccs/Debug/driverlib.lib(sysctl.obj)
 .debug_info    0x00014cc6      0x231 ../driverlib/ccs/Debug/driverlib.lib(sysctl.obj)
 .debug_info    0x00014ef7      0x26b ../driverlib/ccs/Debug/driverlib.lib(sysctl.obj)
 .debug_info    0x00015162      0x275 ../driverlib/ccs/Debug/driverlib.lib(sysctl.obj)
 .debug_info    0x000153d7      0x237 ../driverlib/ccs/Debug/driverlib.lib(sysctl.obj)
 .debug_info    0x0001560e      0x212 ../driverlib/ccs/Debug/driverlib.lib(sysctl.obj)
 .debug_info    0x00015820      0x287 ../driverlib/ccs/Debug/driverlib.lib(sysctl.obj)
 .debug_info    0x00015aa7      0x289 ../driverlib/ccs/Debug/driverlib.lib(sysctl.obj)
 .debug_info    0x00015d30      0x295 ../driverlib/ccs/Debug/driverlib.lib(sysctl.obj)
 .debug_info    0x00015fc5      0x27f ../driverlib/ccs/Debug/driverlib.lib(sysctl.obj)
 .debug_info    0x00016244      0x283 ../driverlib/ccs/Debug/driverlib.lib(sysctl.obj)
 .debug_info    0x000164c7      0x27f ../driverlib/ccs/Debug/driverlib.lib(sysctl.obj)
 .debug_info    0x00016746      0x281 ../driverlib/ccs/Debug/driverlib.lib(sysctl.obj)
 .debug_info    0x000169c7      0x27d ../driverlib/ccs/Debug/driverlib.lib(sysctl.obj)
 .debug_info    0x00016c44      0x27f ../driverlib/ccs/Debug/driverlib.lib(sysctl.obj)
 .debug_info    0x00016ec3      0x28f ../driverlib/ccs/Debug/driverlib.lib(sysctl.obj)
 .debug_info    0x00017152      0x291 ../driverlib/ccs/Debug/driverlib.lib(sysctl.obj)
 .debug_info    0x000173e3      0x271 ../driverlib/ccs/Debug/driverlib.lib(sysctl.obj)
 .debug_info    0x00017654      0x263 ../driverlib/ccs/Debug/driverlib.lib(sysctl.obj)
 .debug_info    0x000178b7      0x22d ../driverlib/ccs/Debug/driverlib.lib(sysctl.obj)
 .debug_info    0x00017ae4      0x265 ../driverlib/ccs/Debug/driverlib.lib(sysctl.obj)
 .debug_info    0x00017d49      0x229 ../driverlib/ccs/Debug/driverlib.lib(sysctl.obj)
 .debug_info    0x00017f72      0x255 ../driverlib/ccs/Debug/driverlib.lib(sysctl.obj)
 .debug_info    0x000181c7      0x267 ../driverlib/ccs/Debug/driverlib.lib(sysctl.obj)
 .debug_info    0x0001842e      0x267 ../driverlib/ccs/Debug/driverlib.lib(sysctl.obj)
 .debug_info    0x00018695      0x22d ../driverlib/ccs/Debug/driverlib.lib(sysctl.obj)
 .debug_info    0x000188c2      0x26f ../driverlib/ccs/Debug/driverlib.lib(sysctl.obj)
 .debug_info    0x00018b31      0x235 ../driverlib/ccs/Debug/driverlib.lib(sysctl.obj)
 .debug_info    0x00018d66      0x252 ../driverlib/ccs/Debug/driverlib.lib(sysctl.obj)
 .debug_info    0x00018fb8      0x257 ../driverlib/ccs/Debug/driverlib.lib(sysctl.obj)
 .debug_info    0x0001920f      0x285 ../driverlib/ccs/Debug/driverlib.lib(sysctl.obj)
 .debug_info    0x00019494      0x257 ../driverlib/ccs/Debug/driverlib.lib(sysctl.obj)
 .debug_info    0x000196eb      0x259 ../driverlib/ccs/Debug/driverlib.lib(sysctl.obj)
 .debug_info    0x00019944      0x255 ../driverlib/ccs/Debug/driverlib.lib(sysctl.obj)
 .debug_info    0x00019b99      0x287 ../driverlib/ccs/Debug/driverlib.lib(sysctl.obj)
 .debug_info    0x00019e20      0x289 ../driverlib/ccs/Debug/driverlib.lib(sysctl.obj)
 .debug_info    0x0001a0a9      0x22f ../driverlib/ccs/Debug/driverlib.lib(sysctl.obj)
 .debug_info    0x0001a2d8      0x241 ../driverlib/ccs/Debug/driverlib.lib(sysctl.obj)
 .debug_info    0x0001a519      0x26f ../driverlib/ccs/Debug/driverlib.lib(sysctl.obj)
 .debug_info    0x0001a788      0x26f ../driverlib/ccs/Debug/driverlib.lib(sysctl.obj)
 .debug_info    0x0001a9f7      0x2c4 ../driverlib/ccs/Debug/driverlib.lib(sysctl.obj)
 .debug_info    0x0001acbb      0x232 ../driverlib/ccs/Debug/driverlib.lib(sysctl.obj)
 .debug_info    0x0001aeed      0x2db ../driverlib/ccs/Debug/driverlib.lib(sysctl.obj)
 .debug_info    0x0001b1c8      0x297 ../driverlib/ccs/Debug/driverlib.lib(sysctl.obj)
 .debug_info    0x0001b45f      0x2b5 ../driverlib/ccs/Debug/driverlib.lib(sysctl.obj)
 .debug_info    0x0001b714      0x270 ../driverlib/ccs/Debug/driverlib.lib(sysctl.obj)
 .debug_info    0x0001b984      0x2ba ../driverlib/ccs/Debug/driverlib.lib(sysctl.obj)
 .debug_info    0x0001bc3e      0x49a ../driverlib/ccs/Debug/driverlib.lib(sysctl.obj)
 .debug_info    0x0001c0d8      0x265 ../driverlib/ccs/Debug/driverlib.lib(sysctl.obj)
 .debug_info    0x0001c33d       0x5f ../driverlib/ccs/Debug/driverlib.lib(sysctl.obj)
                0x0001c33d                __TI_DW.debug_info.sysctl.c.a265d9d1903ab544f4f3a947619a8ee7
 .debug_info    0x0001c39c       0x8b ../driverlib/ccs/Debug/driverlib.lib(sysctl.obj)
                0x0001c39c                __TI_DW.debug_info.$base_types.a3001db55c69772f4e2efd565078122a
 .debug_info    0x0001c427       0xa7 ../driverlib/ccs/Debug/driverlib.lib(sysctl.obj)
                0x0001c427                __TI_DW.debug_info.yvals.h.3104962cf0c0d1dd116d97cae467d0f3
 .debug_info    0x0001c4ce       0x4e ../driverlib/ccs/Debug/driverlib.lib(sysctl.obj)
                0x0001c4ce                __TI_DW.debug_info.stdarg.h.94a6efd7e0ac1e1539e5ef9b3dac1248

.debug_abbrev   0x00000000     0x4b12
 .debug_abbrev  0x00000000       0xa6 ./main.o
 .debug_abbrev  0x000000a6       0xd8 ./tm4c129encpdt_startup_ccs_gcc.o
 .debug_abbrev  0x0000017e      0x145 ./driverlib/adc.o
 .debug_abbrev  0x000002c3      0x113 ./driverlib/aes.o
 .debug_abbrev  0x000003d6      0x1cc ./driverlib/can.o
 .debug_abbrev  0x000005a2      0x10c ./driverlib/comp.o
 .debug_abbrev  0x000006ae       0x26 ./driverlib/cpu.o
 .debug_abbrev  0x000006d4       0xc0 ./driverlib/crc.o
 .debug_abbrev  0x00000794      0x11d ./driverlib/des.o
 .debug_abbrev  0x000008b1      0x142 ./driverlib/eeprom.o
 .debug_abbrev  0x000009f3      0x19d ./driverlib/emac.o
 .debug_abbrev  0x00000b90      0x17a ./driverlib/flash.o
 .debug_abbrev  0x00000d0a       0xa4 ./driverlib/fpu.o
 .debug_abbrev  0x00000dae      0x137 ./driverlib/gpio.o
 .debug_abbrev  0x00000ee5      0x314 ./driverlib/hibernate.o
 .debug_abbrev  0x000011f9      0x150 ./driverlib/i2c.o
 .debug_abbrev  0x00001349      0x132 ./driverlib/interrupt.o
 .debug_abbrev  0x0000147b      0x17c ./driverlib/lcd.o
 .debug_abbrev  0x000015f7      0x11d ./driverlib/mpu.o
 .debug_abbrev  0x00001714      0x145 ./driverlib/onewire.o
 .debug_abbrev  0x00001859      0x113 ./driverlib/pwm.o
 .debug_abbrev  0x0000196c      0x145 ./driverlib/qei.o
 .debug_abbrev  0x00001ab1      0x156 ./driverlib/shamd5.o
 .debug_abbrev  0x00001c07      0x150 ./driverlib/ssi.o
 .debug_abbrev  0x00001d57       0xec ./driverlib/sw_crc.o
 .debug_abbrev  0x00001e43      0x194 ./driverlib/sysctl.o
 .debug_abbrev  0x00001fd7      0x100 ./driverlib/sysexc.o
 .debug_abbrev  0x000020d7       0xbc ./driverlib/systick.o
 .debug_abbrev  0x00002193      0x16a ./driverlib/timer.o
 .debug_abbrev  0x000022fd      0x18b ./driverlib/uart.o
 .debug_abbrev  0x00002488      0x1a2 ./driverlib/udma.o
 .debug_abbrev  0x0000262a      0x179 ./driverlib/usb.o
 .debug_abbrev  0x000027a3      0x10e ./driverlib/watchdog.o
 .debug_abbrev  0x000028b1      0x21a ./utils/random.o
 .debug_abbrev  0x00002acb      0x15a ./utils/uartstdio.o
 .debug_abbrev  0x00002c25      0x392 ./utils/ustdlib.o
 .debug_abbrev  0x00002fb7       0x1c ../driverlib/ccs/Debug/driverlib.lib(cpu.obj)
 .debug_abbrev  0x00002fd3       0x50 ../driverlib/ccs/Debug/driverlib.lib(cpu.obj)
 .debug_abbrev  0x00003023       0x52 ../driverlib/ccs/Debug/driverlib.lib(cpu.obj)
 .debug_abbrev  0x00003075       0x52 ../driverlib/ccs/Debug/driverlib.lib(cpu.obj)
 .debug_abbrev  0x000030c7       0x52 ../driverlib/ccs/Debug/driverlib.lib(cpu.obj)
 .debug_abbrev  0x00003119       0x5e ../driverlib/ccs/Debug/driverlib.lib(cpu.obj)
 .debug_abbrev  0x00003177       0x52 ../driverlib/ccs/Debug/driverlib.lib(cpu.obj)
 .debug_abbrev  0x000031c9       0x1f ../driverlib/ccs/Debug/driverlib.lib(cpu.obj)
 .debug_abbrev  0x000031e8       0x35 ../driverlib/ccs/Debug/driverlib.lib(cpu.obj)
 .debug_abbrev  0x0000321d       0x24 ../driverlib/ccs/Debug/driverlib.lib(cpu.obj)
 .debug_abbrev  0x00003241       0xb0 ../driverlib/ccs/Debug/driverlib.lib(sysctl.obj)
 .debug_abbrev  0x000032f1       0x27 ../driverlib/ccs/Debug/driverlib.lib(sysctl.obj)
 .debug_abbrev  0x00003318       0x27 ../driverlib/ccs/Debug/driverlib.lib(sysctl.obj)
 .debug_abbrev  0x0000333f       0x27 ../driverlib/ccs/Debug/driverlib.lib(sysctl.obj)
 .debug_abbrev  0x00003366       0x27 ../driverlib/ccs/Debug/driverlib.lib(sysctl.obj)
 .debug_abbrev  0x0000338d       0x52 ../driverlib/ccs/Debug/driverlib.lib(sysctl.obj)
 .debug_abbrev  0x000033df       0x6c ../driverlib/ccs/Debug/driverlib.lib(sysctl.obj)
 .debug_abbrev  0x0000344b       0x6c ../driverlib/ccs/Debug/driverlib.lib(sysctl.obj)
 .debug_abbrev  0x000034b7       0x6e ../driverlib/ccs/Debug/driverlib.lib(sysctl.obj)
 .debug_abbrev  0x00003525       0x50 ../driverlib/ccs/Debug/driverlib.lib(sysctl.obj)
 .debug_abbrev  0x00003575       0x50 ../driverlib/ccs/Debug/driverlib.lib(sysctl.obj)
 .debug_abbrev  0x000035c5       0x6c ../driverlib/ccs/Debug/driverlib.lib(sysctl.obj)
 .debug_abbrev  0x00003631       0x55 ../driverlib/ccs/Debug/driverlib.lib(sysctl.obj)
 .debug_abbrev  0x00003686       0x52 ../driverlib/ccs/Debug/driverlib.lib(sysctl.obj)
 .debug_abbrev  0x000036d8       0x52 ../driverlib/ccs/Debug/driverlib.lib(sysctl.obj)
 .debug_abbrev  0x0000372a       0x6c ../driverlib/ccs/Debug/driverlib.lib(sysctl.obj)
 .debug_abbrev  0x00003796       0x6c ../driverlib/ccs/Debug/driverlib.lib(sysctl.obj)
 .debug_abbrev  0x00003802       0x52 ../driverlib/ccs/Debug/driverlib.lib(sysctl.obj)
 .debug_abbrev  0x00003854       0x42 ../driverlib/ccs/Debug/driverlib.lib(sysctl.obj)
 .debug_abbrev  0x00003896       0x6c ../driverlib/ccs/Debug/driverlib.lib(sysctl.obj)
 .debug_abbrev  0x00003902       0x6c ../driverlib/ccs/Debug/driverlib.lib(sysctl.obj)
 .debug_abbrev  0x0000396e       0x6c ../driverlib/ccs/Debug/driverlib.lib(sysctl.obj)
 .debug_abbrev  0x000039da       0x6e ../driverlib/ccs/Debug/driverlib.lib(sysctl.obj)
 .debug_abbrev  0x00003a48       0x6e ../driverlib/ccs/Debug/driverlib.lib(sysctl.obj)
 .debug_abbrev  0x00003ab6       0x6c ../driverlib/ccs/Debug/driverlib.lib(sysctl.obj)
 .debug_abbrev  0x00003b22       0x6c ../driverlib/ccs/Debug/driverlib.lib(sysctl.obj)
 .debug_abbrev  0x00003b8e       0x6c ../driverlib/ccs/Debug/driverlib.lib(sysctl.obj)
 .debug_abbrev  0x00003bfa       0x6c ../driverlib/ccs/Debug/driverlib.lib(sysctl.obj)
 .debug_abbrev  0x00003c66       0x6c ../driverlib/ccs/Debug/driverlib.lib(sysctl.obj)
 .debug_abbrev  0x00003cd2       0x6c ../driverlib/ccs/Debug/driverlib.lib(sysctl.obj)
 .debug_abbrev  0x00003d3e       0x6c ../driverlib/ccs/Debug/driverlib.lib(sysctl.obj)
 .debug_abbrev  0x00003daa       0x6c ../driverlib/ccs/Debug/driverlib.lib(sysctl.obj)
 .debug_abbrev  0x00003e16       0x52 ../driverlib/ccs/Debug/driverlib.lib(sysctl.obj)
 .debug_abbrev  0x00003e68       0x6e ../driverlib/ccs/Debug/driverlib.lib(sysctl.obj)
 .debug_abbrev  0x00003ed6       0x52 ../driverlib/ccs/Debug/driverlib.lib(sysctl.obj)
 .debug_abbrev  0x00003f28       0x6c ../driverlib/ccs/Debug/driverlib.lib(sysctl.obj)
 .debug_abbrev  0x00003f94       0x6c ../driverlib/ccs/Debug/driverlib.lib(sysctl.obj)
 .debug_abbrev  0x00004000       0x6c ../driverlib/ccs/Debug/driverlib.lib(sysctl.obj)
 .debug_abbrev  0x0000406c       0x52 ../driverlib/ccs/Debug/driverlib.lib(sysctl.obj)
 .debug_abbrev  0x000040be       0x6c ../driverlib/ccs/Debug/driverlib.lib(sysctl.obj)
 .debug_abbrev  0x0000412a       0x52 ../driverlib/ccs/Debug/driverlib.lib(sysctl.obj)
 .debug_abbrev  0x0000417c       0x5e ../driverlib/ccs/Debug/driverlib.lib(sysctl.obj)
 .debug_abbrev  0x000041da       0x6e ../driverlib/ccs/Debug/driverlib.lib(sysctl.obj)
 .debug_abbrev  0x00004248       0x7a ../driverlib/ccs/Debug/driverlib.lib(sysctl.obj)
 .debug_abbrev  0x000042c2       0x6c ../driverlib/ccs/Debug/driverlib.lib(sysctl.obj)
 .debug_abbrev  0x0000432e       0x6c ../driverlib/ccs/Debug/driverlib.lib(sysctl.obj)
 .debug_abbrev  0x0000439a       0x6c ../driverlib/ccs/Debug/driverlib.lib(sysctl.obj)
 .debug_abbrev  0x00004406       0x6c ../driverlib/ccs/Debug/driverlib.lib(sysctl.obj)
 .debug_abbrev  0x00004472       0x6c ../driverlib/ccs/Debug/driverlib.lib(sysctl.obj)
 .debug_abbrev  0x000044de       0x52 ../driverlib/ccs/Debug/driverlib.lib(sysctl.obj)
 .debug_abbrev  0x00004530       0x52 ../driverlib/ccs/Debug/driverlib.lib(sysctl.obj)
 .debug_abbrev  0x00004582       0x6c ../driverlib/ccs/Debug/driverlib.lib(sysctl.obj)
 .debug_abbrev  0x000045ee       0x6c ../driverlib/ccs/Debug/driverlib.lib(sysctl.obj)
 .debug_abbrev  0x0000465a       0x6c ../driverlib/ccs/Debug/driverlib.lib(sysctl.obj)
 .debug_abbrev  0x000046c6       0x5e ../driverlib/ccs/Debug/driverlib.lib(sysctl.obj)
 .debug_abbrev  0x00004724       0x7a ../driverlib/ccs/Debug/driverlib.lib(sysctl.obj)
 .debug_abbrev  0x0000479e       0x6c ../driverlib/ccs/Debug/driverlib.lib(sysctl.obj)
 .debug_abbrev  0x0000480a       0x60 ../driverlib/ccs/Debug/driverlib.lib(sysctl.obj)
 .debug_abbrev  0x0000486a       0x6c ../driverlib/ccs/Debug/driverlib.lib(sysctl.obj)
 .debug_abbrev  0x000048d6       0x6c ../driverlib/ccs/Debug/driverlib.lib(sysctl.obj)
 .debug_abbrev  0x00004942       0x7c ../driverlib/ccs/Debug/driverlib.lib(sysctl.obj)
 .debug_abbrev  0x000049be       0x6c ../driverlib/ccs/Debug/driverlib.lib(sysctl.obj)
 .debug_abbrev  0x00004a2a       0x49 ../driverlib/ccs/Debug/driverlib.lib(sysctl.obj)
 .debug_abbrev  0x00004a73       0x1f ../driverlib/ccs/Debug/driverlib.lib(sysctl.obj)
 .debug_abbrev  0x00004a92       0x35 ../driverlib/ccs/Debug/driverlib.lib(sysctl.obj)
 .debug_abbrev  0x00004ac7       0x4b ../driverlib/ccs/Debug/driverlib.lib(sysctl.obj)

.debug_aranges  0x00000000     0x2818
 .debug_aranges
                0x00000000       0x20 ./main.o
 .debug_aranges
                0x00000020       0x38 ./tm4c129encpdt_startup_ccs_gcc.o
 .debug_aranges
                0x00000058      0x160 ./driverlib/adc.o
 .debug_aranges
                0x000001b8       0xe0 ./driverlib/aes.o
 .debug_aranges
                0x00000298       0xc8 ./driverlib/can.o
 .debug_aranges
                0x00000360       0x60 ./driverlib/comp.o
 .debug_aranges
                0x000003c0       0x18 ./driverlib/cpu.o
 .debug_aranges
                0x000003d8       0x40 ./driverlib/crc.o
 .debug_aranges
                0x00000418       0xa8 ./driverlib/des.o
 .debug_aranges
                0x000004c0       0xc0 ./driverlib/eeprom.o
 .debug_aranges
                0x00000580      0x2a0 ./driverlib/emac.o
 .debug_aranges
                0x00000820       0xa0 ./driverlib/flash.o
 .debug_aranges
                0x000008c0       0x60 ./driverlib/fpu.o
 .debug_aranges
                0x00000920      0x1a0 ./driverlib/gpio.o
 .debug_aranges
                0x00000ac0      0x1c8 ./driverlib/hibernate.o
 .debug_aranges
                0x00000c88      0x1d0 ./driverlib/i2c.o
 .debug_aranges
                0x00000e58       0xa0 ./driverlib/interrupt.o
 .debug_aranges
                0x00000ef8      0x108 ./driverlib/lcd.o
 .debug_aranges
                0x00001000       0x60 ./driverlib/mpu.o
 .debug_aranges
                0x00001060       0x90 ./driverlib/onewire.o
 .debug_aranges
                0x000010f0      0x148 ./driverlib/pwm.o
 .debug_aranges
                0x00001238       0xc0 ./driverlib/qei.o
 .debug_aranges
                0x000012f8       0xb8 ./driverlib/shamd5.o
 .debug_aranges
                0x000013b0       0xd8 ./driverlib/ssi.o
 .debug_aranges
                0x00001488       0x40 ./driverlib/sw_crc.o
 .debug_aranges
                0x000014c8      0x1e0 ./driverlib/sysctl.o
 .debug_aranges
                0x000016a8       0x50 ./driverlib/sysexc.o
 .debug_aranges
                0x000016f8       0x60 ./driverlib/systick.o
 .debug_aranges
                0x00001758      0x150 ./driverlib/timer.o
 .debug_aranges
                0x000018a8      0x198 ./driverlib/uart.o
 .debug_aranges
                0x00001a40       0xe8 ./driverlib/udma.o
 .debug_aranges
                0x00001b28      0x358 ./driverlib/usb.o
 .debug_aranges
                0x00001e80       0xa8 ./driverlib/watchdog.o
 .debug_aranges
                0x00001f28       0x28 ./utils/random.o
 .debug_aranges
                0x00001f50       0x48 ./utils/uartstdio.o
 .debug_aranges
                0x00001f98       0xa0 ./utils/ustdlib.o
 .debug_aranges
                0x00002038       0x20 ../driverlib/ccs/Debug/driverlib.lib(cpu.obj)
 .debug_aranges
                0x00002058       0x20 ../driverlib/ccs/Debug/driverlib.lib(cpu.obj)
 .debug_aranges
                0x00002078       0x20 ../driverlib/ccs/Debug/driverlib.lib(cpu.obj)
 .debug_aranges
                0x00002098       0x20 ../driverlib/ccs/Debug/driverlib.lib(cpu.obj)
 .debug_aranges
                0x000020b8       0x20 ../driverlib/ccs/Debug/driverlib.lib(cpu.obj)
 .debug_aranges
                0x000020d8       0x20 ../driverlib/ccs/Debug/driverlib.lib(cpu.obj)
 .debug_aranges
                0x000020f8       0x20 ../driverlib/ccs/Debug/driverlib.lib(sysctl.obj)
 .debug_aranges
                0x00002118       0x20 ../driverlib/ccs/Debug/driverlib.lib(sysctl.obj)
 .debug_aranges
                0x00002138       0x20 ../driverlib/ccs/Debug/driverlib.lib(sysctl.obj)
 .debug_aranges
                0x00002158       0x20 ../driverlib/ccs/Debug/driverlib.lib(sysctl.obj)
 .debug_aranges
                0x00002178       0x20 ../driverlib/ccs/Debug/driverlib.lib(sysctl.obj)
 .debug_aranges
                0x00002198       0x20 ../driverlib/ccs/Debug/driverlib.lib(sysctl.obj)
 .debug_aranges
                0x000021b8       0x20 ../driverlib/ccs/Debug/driverlib.lib(sysctl.obj)
 .debug_aranges
                0x000021d8       0x20 ../driverlib/ccs/Debug/driverlib.lib(sysctl.obj)
 .debug_aranges
                0x000021f8       0x20 ../driverlib/ccs/Debug/driverlib.lib(sysctl.obj)
 .debug_aranges
                0x00002218       0x20 ../driverlib/ccs/Debug/driverlib.lib(sysctl.obj)
 .debug_aranges
                0x00002238       0x20 ../driverlib/ccs/Debug/driverlib.lib(sysctl.obj)
 .debug_aranges
                0x00002258       0x20 ../driverlib/ccs/Debug/driverlib.lib(sysctl.obj)
 .debug_aranges
                0x00002278       0x20 ../driverlib/ccs/Debug/driverlib.lib(sysctl.obj)
 .debug_aranges
                0x00002298       0x20 ../driverlib/ccs/Debug/driverlib.lib(sysctl.obj)
 .debug_aranges
                0x000022b8       0x20 ../driverlib/ccs/Debug/driverlib.lib(sysctl.obj)
 .debug_aranges
                0x000022d8       0x20 ../driverlib/ccs/Debug/driverlib.lib(sysctl.obj)
 .debug_aranges
                0x000022f8       0x20 ../driverlib/ccs/Debug/driverlib.lib(sysctl.obj)
 .debug_aranges
                0x00002318       0x20 ../driverlib/ccs/Debug/driverlib.lib(sysctl.obj)
 .debug_aranges
                0x00002338       0x20 ../driverlib/ccs/Debug/driverlib.lib(sysctl.obj)
 .debug_aranges
                0x00002358       0x20 ../driverlib/ccs/Debug/driverlib.lib(sysctl.obj)
 .debug_aranges
                0x00002378       0x20 ../driverlib/ccs/Debug/driverlib.lib(sysctl.obj)
 .debug_aranges
                0x00002398       0x20 ../driverlib/ccs/Debug/driverlib.lib(sysctl.obj)
 .debug_aranges
                0x000023b8       0x20 ../driverlib/ccs/Debug/driverlib.lib(sysctl.obj)
 .debug_aranges
                0x000023d8       0x20 ../driverlib/ccs/Debug/driverlib.lib(sysctl.obj)
 .debug_aranges
                0x000023f8       0x20 ../driverlib/ccs/Debug/driverlib.lib(sysctl.obj)
 .debug_aranges
                0x00002418       0x20 ../driverlib/ccs/Debug/driverlib.lib(sysctl.obj)
 .debug_aranges
                0x00002438       0x20 ../driverlib/ccs/Debug/driverlib.lib(sysctl.obj)
 .debug_aranges
                0x00002458       0x20 ../driverlib/ccs/Debug/driverlib.lib(sysctl.obj)
 .debug_aranges
                0x00002478       0x20 ../driverlib/ccs/Debug/driverlib.lib(sysctl.obj)
 .debug_aranges
                0x00002498       0x20 ../driverlib/ccs/Debug/driverlib.lib(sysctl.obj)
 .debug_aranges
                0x000024b8       0x20 ../driverlib/ccs/Debug/driverlib.lib(sysctl.obj)
 .debug_aranges
                0x000024d8       0x20 ../driverlib/ccs/Debug/driverlib.lib(sysctl.obj)
 .debug_aranges
                0x000024f8       0x20 ../driverlib/ccs/Debug/driverlib.lib(sysctl.obj)
 .debug_aranges
                0x00002518       0x20 ../driverlib/ccs/Debug/driverlib.lib(sysctl.obj)
 .debug_aranges
                0x00002538       0x20 ../driverlib/ccs/Debug/driverlib.lib(sysctl.obj)
 .debug_aranges
                0x00002558       0x20 ../driverlib/ccs/Debug/driverlib.lib(sysctl.obj)
 .debug_aranges
                0x00002578       0x20 ../driverlib/ccs/Debug/driverlib.lib(sysctl.obj)
 .debug_aranges
                0x00002598       0x20 ../driverlib/ccs/Debug/driverlib.lib(sysctl.obj)
 .debug_aranges
                0x000025b8       0x20 ../driverlib/ccs/Debug/driverlib.lib(sysctl.obj)
 .debug_aranges
                0x000025d8       0x20 ../driverlib/ccs/Debug/driverlib.lib(sysctl.obj)
 .debug_aranges
                0x000025f8       0x20 ../driverlib/ccs/Debug/driverlib.lib(sysctl.obj)
 .debug_aranges
                0x00002618       0x20 ../driverlib/ccs/Debug/driverlib.lib(sysctl.obj)
 .debug_aranges
                0x00002638       0x20 ../driverlib/ccs/Debug/driverlib.lib(sysctl.obj)
 .debug_aranges
                0x00002658       0x20 ../driverlib/ccs/Debug/driverlib.lib(sysctl.obj)
 .debug_aranges
                0x00002678       0x20 ../driverlib/ccs/Debug/driverlib.lib(sysctl.obj)
 .debug_aranges
                0x00002698       0x20 ../driverlib/ccs/Debug/driverlib.lib(sysctl.obj)
 .debug_aranges
                0x000026b8       0x20 ../driverlib/ccs/Debug/driverlib.lib(sysctl.obj)
 .debug_aranges
                0x000026d8       0x20 ../driverlib/ccs/Debug/driverlib.lib(sysctl.obj)
 .debug_aranges
                0x000026f8       0x20 ../driverlib/ccs/Debug/driverlib.lib(sysctl.obj)
 .debug_aranges
                0x00002718       0x20 ../driverlib/ccs/Debug/driverlib.lib(sysctl.obj)
 .debug_aranges
                0x00002738       0x20 ../driverlib/ccs/Debug/driverlib.lib(sysctl.obj)
 .debug_aranges
                0x00002758       0x20 ../driverlib/ccs/Debug/driverlib.lib(sysctl.obj)
 .debug_aranges
                0x00002778       0x20 ../driverlib/ccs/Debug/driverlib.lib(sysctl.obj)
 .debug_aranges
                0x00002798       0x20 ../driverlib/ccs/Debug/driverlib.lib(sysctl.obj)
 .debug_aranges
                0x000027b8       0x20 ../driverlib/ccs/Debug/driverlib.lib(sysctl.obj)
 .debug_aranges
                0x000027d8       0x20 ../driverlib/ccs/Debug/driverlib.lib(sysctl.obj)
 .debug_aranges
                0x000027f8       0x20 ../driverlib/ccs/Debug/driverlib.lib(sysctl.obj)

.debug_ranges   0x00000000     0x1df0
 .debug_ranges  0x00000000       0x10 ./main.o
 .debug_ranges  0x00000010       0x28 ./tm4c129encpdt_startup_ccs_gcc.o
 .debug_ranges  0x00000038      0x150 ./driverlib/adc.o
 .debug_ranges  0x00000188       0xd0 ./driverlib/aes.o
 .debug_ranges  0x00000258       0xb8 ./driverlib/can.o
 .debug_ranges  0x00000310       0x50 ./driverlib/comp.o
 .debug_ranges  0x00000360       0x30 ./driverlib/crc.o
 .debug_ranges  0x00000390       0x98 ./driverlib/des.o
 .debug_ranges  0x00000428       0xb0 ./driverlib/eeprom.o
 .debug_ranges  0x000004d8      0x290 ./driverlib/emac.o
 .debug_ranges  0x00000768       0x90 ./driverlib/flash.o
 .debug_ranges  0x000007f8       0x50 ./driverlib/fpu.o
 .debug_ranges  0x00000848      0x190 ./driverlib/gpio.o
 .debug_ranges  0x000009d8      0x1b8 ./driverlib/hibernate.o
 .debug_ranges  0x00000b90      0x1c0 ./driverlib/i2c.o
 .debug_ranges  0x00000d50       0x90 ./driverlib/interrupt.o
 .debug_ranges  0x00000de0       0xf8 ./driverlib/lcd.o
 .debug_ranges  0x00000ed8       0x50 ./driverlib/mpu.o
 .debug_ranges  0x00000f28       0x80 ./driverlib/onewire.o
 .debug_ranges  0x00000fa8      0x138 ./driverlib/pwm.o
 .debug_ranges  0x000010e0       0xb0 ./driverlib/qei.o
 .debug_ranges  0x00001190       0xa8 ./driverlib/shamd5.o
 .debug_ranges  0x00001238       0xc8 ./driverlib/ssi.o
 .debug_ranges  0x00001300       0x30 ./driverlib/sw_crc.o
 .debug_ranges  0x00001330      0x1d0 ./driverlib/sysctl.o
 .debug_ranges  0x00001500       0x40 ./driverlib/sysexc.o
 .debug_ranges  0x00001540       0x50 ./driverlib/systick.o
 .debug_ranges  0x00001590      0x140 ./driverlib/timer.o
 .debug_ranges  0x000016d0      0x188 ./driverlib/uart.o
 .debug_ranges  0x00001858       0xd8 ./driverlib/udma.o
 .debug_ranges  0x00001930      0x348 ./driverlib/usb.o
 .debug_ranges  0x00001c78       0x98 ./driverlib/watchdog.o
 .debug_ranges  0x00001d10       0x18 ./utils/random.o
 .debug_ranges  0x00001d28       0x38 ./utils/uartstdio.o
 .debug_ranges  0x00001d60       0x90 ./utils/ustdlib.o

.debug_line     0x00000000    0x1334f
 .debug_line    0x00000000      0x2ab ./main.o
 .debug_line    0x000002ab      0x1b7 ./tm4c129encpdt_startup_ccs_gcc.o
 .debug_line    0x00000462      0xb43 ./driverlib/adc.o
 .debug_line    0x00000fa5      0x799 ./driverlib/aes.o
 .debug_line    0x0000173e      0xc95 ./driverlib/can.o
 .debug_line    0x000023d3      0x288 ./driverlib/comp.o
 .debug_line    0x0000265b       0x1d ./driverlib/cpu.o
 .debug_line    0x00002678      0x208 ./driverlib/crc.o
 .debug_line    0x00002880      0x4eb ./driverlib/des.o
 .debug_line    0x00002d6b      0x66f ./driverlib/eeprom.o
 .debug_line    0x000033da     0x119e ./driverlib/emac.o
 .debug_line    0x00004578      0x5e1 ./driverlib/flash.o
 .debug_line    0x00004b59      0x244 ./driverlib/fpu.o
 .debug_line    0x00004d9d      0xb58 ./driverlib/gpio.o
 .debug_line    0x000058f5      0xe13 ./driverlib/hibernate.o
 .debug_line    0x00006708      0xa37 ./driverlib/i2c.o
 .debug_line    0x0000713f      0x558 ./driverlib/interrupt.o
 .debug_line    0x00007697      0x84c ./driverlib/lcd.o
 .debug_line    0x00007ee3      0x262 ./driverlib/mpu.o
 .debug_line    0x00008145      0x40f ./driverlib/onewire.o
 .debug_line    0x00008554      0xa03 ./driverlib/pwm.o
 .debug_line    0x00008f57      0x43c ./driverlib/qei.o
 .debug_line    0x00009393      0x666 ./driverlib/shamd5.o
 .debug_line    0x000099f9      0x5f0 ./driverlib/ssi.o
 .debug_line    0x00009fe9      0x4a3 ./driverlib/sw_crc.o
 .debug_line    0x0000a48c     0x1060 ./driverlib/sysctl.o
 .debug_line    0x0000b4ec      0x21a ./driverlib/sysexc.o
 .debug_line    0x0000b706      0x21e ./driverlib/systick.o
 .debug_line    0x0000b924      0x924 ./driverlib/timer.o
 .debug_line    0x0000c248      0x9c3 ./driverlib/uart.o
 .debug_line    0x0000cc0b      0x7ba ./driverlib/udma.o
 .debug_line    0x0000d3c5     0x18bb ./driverlib/usb.o
 .debug_line    0x0000ec80      0x35d ./driverlib/watchdog.o
 .debug_line    0x0000efdd      0x307 ./utils/random.o
 .debug_line    0x0000f2e4      0x597 ./utils/uartstdio.o
 .debug_line    0x0000f87b      0xe1f ./utils/ustdlib.o
 .debug_line    0x0001069a       0x20 ../driverlib/ccs/Debug/driverlib.lib(cpu.obj)
 .debug_line    0x000106ba       0x8e ../driverlib/ccs/Debug/driverlib.lib(cpu.obj)
 .debug_line    0x00010748       0x91 ../driverlib/ccs/Debug/driverlib.lib(cpu.obj)
 .debug_line    0x000107d9       0x91 ../driverlib/ccs/Debug/driverlib.lib(cpu.obj)
 .debug_line    0x0001086a       0x91 ../driverlib/ccs/Debug/driverlib.lib(cpu.obj)
 .debug_line    0x000108fb       0x8e ../driverlib/ccs/Debug/driverlib.lib(cpu.obj)
 .debug_line    0x00010989       0x91 ../driverlib/ccs/Debug/driverlib.lib(cpu.obj)
 .debug_line    0x00010a1a       0x20 ../driverlib/ccs/Debug/driverlib.lib(cpu.obj)
 .debug_line    0x00010a3a       0x69 ../driverlib/ccs/Debug/driverlib.lib(cpu.obj)
 .debug_line    0x00010aa3       0x7c ../driverlib/ccs/Debug/driverlib.lib(cpu.obj)
 .debug_line    0x00010b1f      0x13d ../driverlib/ccs/Debug/driverlib.lib(sysctl.obj)
 .debug_line    0x00010c5c       0x7f ../driverlib/ccs/Debug/driverlib.lib(sysctl.obj)
 .debug_line    0x00010cdb       0x7f ../driverlib/ccs/Debug/driverlib.lib(sysctl.obj)
 .debug_line    0x00010d5a       0x7f ../driverlib/ccs/Debug/driverlib.lib(sysctl.obj)
 .debug_line    0x00010dd9       0x7f ../driverlib/ccs/Debug/driverlib.lib(sysctl.obj)
 .debug_line    0x00010e58       0x94 ../driverlib/ccs/Debug/driverlib.lib(sysctl.obj)
 .debug_line    0x00010eec       0x94 ../driverlib/ccs/Debug/driverlib.lib(sysctl.obj)
 .debug_line    0x00010f80       0x94 ../driverlib/ccs/Debug/driverlib.lib(sysctl.obj)
 .debug_line    0x00011014       0xa8 ../driverlib/ccs/Debug/driverlib.lib(sysctl.obj)
 .debug_line    0x000110bc       0x94 ../driverlib/ccs/Debug/driverlib.lib(sysctl.obj)
 .debug_line    0x00011150       0x94 ../driverlib/ccs/Debug/driverlib.lib(sysctl.obj)
 .debug_line    0x000111e4       0x94 ../driverlib/ccs/Debug/driverlib.lib(sysctl.obj)
 .debug_line    0x00011278       0x94 ../driverlib/ccs/Debug/driverlib.lib(sysctl.obj)
 .debug_line    0x0001130c       0x94 ../driverlib/ccs/Debug/driverlib.lib(sysctl.obj)
 .debug_line    0x000113a0       0x94 ../driverlib/ccs/Debug/driverlib.lib(sysctl.obj)
 .debug_line    0x00011434       0x94 ../driverlib/ccs/Debug/driverlib.lib(sysctl.obj)
 .debug_line    0x000114c8       0x94 ../driverlib/ccs/Debug/driverlib.lib(sysctl.obj)
 .debug_line    0x0001155c       0x94 ../driverlib/ccs/Debug/driverlib.lib(sysctl.obj)
 .debug_line    0x000115f0       0x97 ../driverlib/ccs/Debug/driverlib.lib(sysctl.obj)
 .debug_line    0x00011687       0x94 ../driverlib/ccs/Debug/driverlib.lib(sysctl.obj)
 .debug_line    0x0001171b       0x94 ../driverlib/ccs/Debug/driverlib.lib(sysctl.obj)
 .debug_line    0x000117af       0xa7 ../driverlib/ccs/Debug/driverlib.lib(sysctl.obj)
 .debug_line    0x00011856       0x94 ../driverlib/ccs/Debug/driverlib.lib(sysctl.obj)
 .debug_line    0x000118ea       0x94 ../driverlib/ccs/Debug/driverlib.lib(sysctl.obj)
 .debug_line    0x0001197e       0x94 ../driverlib/ccs/Debug/driverlib.lib(sysctl.obj)
 .debug_line    0x00011a12       0x94 ../driverlib/ccs/Debug/driverlib.lib(sysctl.obj)
 .debug_line    0x00011aa6       0x94 ../driverlib/ccs/Debug/driverlib.lib(sysctl.obj)
 .debug_line    0x00011b3a       0x94 ../driverlib/ccs/Debug/driverlib.lib(sysctl.obj)
 .debug_line    0x00011bce       0x94 ../driverlib/ccs/Debug/driverlib.lib(sysctl.obj)
 .debug_line    0x00011c62       0x94 ../driverlib/ccs/Debug/driverlib.lib(sysctl.obj)
 .debug_line    0x00011cf6       0xaa ../driverlib/ccs/Debug/driverlib.lib(sysctl.obj)
 .debug_line    0x00011da0       0x94 ../driverlib/ccs/Debug/driverlib.lib(sysctl.obj)
 .debug_line    0x00011e34       0x97 ../driverlib/ccs/Debug/driverlib.lib(sysctl.obj)
 .debug_line    0x00011ecb       0xac ../driverlib/ccs/Debug/driverlib.lib(sysctl.obj)
 .debug_line    0x00011f77       0x94 ../driverlib/ccs/Debug/driverlib.lib(sysctl.obj)
 .debug_line    0x0001200b       0x94 ../driverlib/ccs/Debug/driverlib.lib(sysctl.obj)
 .debug_line    0x0001209f       0x94 ../driverlib/ccs/Debug/driverlib.lib(sysctl.obj)
 .debug_line    0x00012133       0x94 ../driverlib/ccs/Debug/driverlib.lib(sysctl.obj)
 .debug_line    0x000121c7       0x94 ../driverlib/ccs/Debug/driverlib.lib(sysctl.obj)
 .debug_line    0x0001225b       0x94 ../driverlib/ccs/Debug/driverlib.lib(sysctl.obj)
 .debug_line    0x000122ef       0x94 ../driverlib/ccs/Debug/driverlib.lib(sysctl.obj)
 .debug_line    0x00012383       0x95 ../driverlib/ccs/Debug/driverlib.lib(sysctl.obj)
 .debug_line    0x00012418       0x94 ../driverlib/ccs/Debug/driverlib.lib(sysctl.obj)
 .debug_line    0x000124ac       0x95 ../driverlib/ccs/Debug/driverlib.lib(sysctl.obj)
 .debug_line    0x00012541       0x94 ../driverlib/ccs/Debug/driverlib.lib(sysctl.obj)
 .debug_line    0x000125d5       0x94 ../driverlib/ccs/Debug/driverlib.lib(sysctl.obj)
 .debug_line    0x00012669       0x94 ../driverlib/ccs/Debug/driverlib.lib(sysctl.obj)
 .debug_line    0x000126fd       0x94 ../driverlib/ccs/Debug/driverlib.lib(sysctl.obj)
 .debug_line    0x00012791       0x94 ../driverlib/ccs/Debug/driverlib.lib(sysctl.obj)
 .debug_line    0x00012825       0x94 ../driverlib/ccs/Debug/driverlib.lib(sysctl.obj)
 .debug_line    0x000128b9       0x97 ../driverlib/ccs/Debug/driverlib.lib(sysctl.obj)
 .debug_line    0x00012950       0x94 ../driverlib/ccs/Debug/driverlib.lib(sysctl.obj)
 .debug_line    0x000129e4       0x94 ../driverlib/ccs/Debug/driverlib.lib(sysctl.obj)
 .debug_line    0x00012a78       0xbd ../driverlib/ccs/Debug/driverlib.lib(sysctl.obj)
 .debug_line    0x00012b35       0x96 ../driverlib/ccs/Debug/driverlib.lib(sysctl.obj)
 .debug_line    0x00012bcb       0xee ../driverlib/ccs/Debug/driverlib.lib(sysctl.obj)
 .debug_line    0x00012cb9       0x94 ../driverlib/ccs/Debug/driverlib.lib(sysctl.obj)
 .debug_line    0x00012d4d      0x11a ../driverlib/ccs/Debug/driverlib.lib(sysctl.obj)
 .debug_line    0x00012e67       0x9e ../driverlib/ccs/Debug/driverlib.lib(sysctl.obj)
 .debug_line    0x00012f05       0xb0 ../driverlib/ccs/Debug/driverlib.lib(sysctl.obj)
 .debug_line    0x00012fb5      0x196 ../driverlib/ccs/Debug/driverlib.lib(sysctl.obj)
 .debug_line    0x0001314b       0x94 ../driverlib/ccs/Debug/driverlib.lib(sysctl.obj)
 .debug_line    0x000131df       0x7f ../driverlib/ccs/Debug/driverlib.lib(sysctl.obj)
 .debug_line    0x0001325e       0x20 ../driverlib/ccs/Debug/driverlib.lib(sysctl.obj)
 .debug_line    0x0001327e       0x68 ../driverlib/ccs/Debug/driverlib.lib(sysctl.obj)
 .debug_line    0x000132e6       0x69 ../driverlib/ccs/Debug/driverlib.lib(sysctl.obj)

.debug_str      0x00000000     0x6d07
 .debug_str     0x00000000      0x2c3 ./main.o
                                0x404 (size before relaxing)
 .debug_str     0x000002c3      0x180 ./tm4c129encpdt_startup_ccs_gcc.o
                                0x245 (size before relaxing)
 .debug_str     0x00000443      0x460 ./driverlib/adc.o
                                0x648 (size before relaxing)
 .debug_str     0x000008a3      0x1eb ./driverlib/aes.o
                                0x3fd (size before relaxing)
 .debug_str     0x00000a8e      0x47a ./driverlib/can.o
                                0x694 (size before relaxing)
 .debug_str     0x00000f08       0x66 ./driverlib/comp.o
                                0x291 (size before relaxing)
 .debug_str     0x00000f6e       0x13 ./driverlib/cpu.o
                                0x188 (size before relaxing)
 .debug_str     0x00000f81       0x9c ./driverlib/crc.o
                                0x24f (size before relaxing)
 .debug_str     0x0000101d      0x10f ./driverlib/des.o
                                0x32f (size before relaxing)
 .debug_str     0x0000112c      0x1d4 ./driverlib/eeprom.o
                                0x396 (size before relaxing)
 .debug_str     0x00001300      0x966 ./driverlib/emac.o
                                0xbe2 (size before relaxing)
 .debug_str     0x00001c66      0x1fe ./driverlib/flash.o
                                0x41a (size before relaxing)
 .debug_str     0x00001e64       0xb2 ./driverlib/fpu.o
                                0x244 (size before relaxing)
 .debug_str     0x00001f16      0x4e8 ./driverlib/gpio.o
                                0x6e8 (size before relaxing)
 .debug_str     0x000023fe      0x91b ./driverlib/hibernate.o
                                0xbb1 (size before relaxing)
 .debug_str     0x00002d19      0x4d8 ./driverlib/i2c.o
                                0x6f9 (size before relaxing)
 .debug_str     0x000031f1      0x198 ./driverlib/interrupt.o
                                0x3a9 (size before relaxing)
 .debug_str     0x00003389      0x404 ./driverlib/lcd.o
                                0x649 (size before relaxing)
 .debug_str     0x0000378d       0xb9 ./driverlib/mpu.o
                                0x26a (size before relaxing)
 .debug_str     0x00003846      0x165 ./driverlib/onewire.o
                                0x338 (size before relaxing)
 .debug_str     0x000039ab      0x3a9 ./driverlib/pwm.o
                                0x5e2 (size before relaxing)
 .debug_str     0x00003d54      0x185 ./driverlib/qei.o
                                0x36d (size before relaxing)
 .debug_str     0x00003ed9      0x1b6 ./driverlib/shamd5.o
                                0x3e8 (size before relaxing)
 .debug_str     0x0000408f      0x265 ./driverlib/ssi.o
                                0x494 (size before relaxing)
 .debug_str     0x000042f4       0x9d ./driverlib/sw_crc.o
                                0x288 (size before relaxing)
 .debug_str     0x00004391      0x6ba ./driverlib/sysctl.o
                                0x8d2 (size before relaxing)
 .debug_str     0x00004a4b       0x90 ./driverlib/sysexc.o
                                0x247 (size before relaxing)
 .debug_str     0x00004adb       0xb1 ./driverlib/systick.o
                                0x250 (size before relaxing)
 .debug_str     0x00004b8c      0x366 ./driverlib/timer.o
                                0x5a8 (size before relaxing)
 .debug_str     0x00004ef2      0x419 ./driverlib/uart.o
                                0x69c (size before relaxing)
 .debug_str     0x0000530b      0x378 ./driverlib/udma.o
                                0x534 (size before relaxing)
 .debug_str     0x00005683      0x8e8 ./driverlib/usb.o
                                0xbbb (size before relaxing)
 .debug_str     0x00005f6b      0x16a ./driverlib/watchdog.o
                                0x31e (size before relaxing)
 .debug_str     0x000060d5       0x6e ./utils/random.o
                                0x62e (size before relaxing)
 .debug_str     0x00006143      0x120 ./utils/uartstdio.o
                                0x306 (size before relaxing)
 .debug_str     0x00006263      0x1ae ./utils/ustdlib.o
                                0x7da (size before relaxing)
 .debug_str     0x00006411       0xf5 ../driverlib/ccs/Debug/driverlib.lib(cpu.obj)
 .debug_str     0x00006506      0x241 ../driverlib/ccs/Debug/driverlib.lib(cpu.obj)
 .debug_str     0x00006747      0x122 ../driverlib/ccs/Debug/driverlib.lib(cpu.obj)
 .debug_str     0x00006869      0x141 ../driverlib/ccs/Debug/driverlib.lib(sysctl.obj)
 .debug_str     0x000069aa       0xf5 ../driverlib/ccs/Debug/driverlib.lib(sysctl.obj)
 .debug_str     0x00006a9f      0x154 ../driverlib/ccs/Debug/driverlib.lib(sysctl.obj)
 .debug_str     0x00006bf3      0x114 ../driverlib/ccs/Debug/driverlib.lib(sysctl.obj)

.debug_frame    0x00000000     0x7260
 .debug_frame   0x00000000       0x28 ./main.o
 .debug_frame   0x00000028       0x58 ./tm4c129encpdt_startup_ccs_gcc.o
 .debug_frame   0x00000080      0x334 ./driverlib/adc.o
 .debug_frame   0x000003b4      0x20c ./driverlib/aes.o
 .debug_frame   0x000005c0      0x1f0 ./driverlib/can.o
 .debug_frame   0x000007b0       0xb4 ./driverlib/comp.o
 .debug_frame   0x00000864       0x6c ./driverlib/crc.o
 .debug_frame   0x000008d0      0x16c ./driverlib/des.o
 .debug_frame   0x00000a3c      0x1b8 ./driverlib/eeprom.o
 .debug_frame   0x00000bf4      0x62c ./driverlib/emac.o
 .debug_frame   0x00001220      0x168 ./driverlib/flash.o
 .debug_frame   0x00001388       0xa0 ./driverlib/fpu.o
 .debug_frame   0x00001428      0x4cc ./driverlib/gpio.o
 .debug_frame   0x000018f4      0x4c0 ./driverlib/hibernate.o
 .debug_frame   0x00001db4      0x3b8 ./driverlib/i2c.o
 .debug_frame   0x0000216c      0x15c ./driverlib/interrupt.o
 .debug_frame   0x000022c8      0x274 ./driverlib/lcd.o
 .debug_frame   0x0000253c       0xb0 ./driverlib/mpu.o
 .debug_frame   0x000025ec      0x12c ./driverlib/onewire.o
 .debug_frame   0x00002718      0x2e0 ./driverlib/pwm.o
 .debug_frame   0x000029f8      0x174 ./driverlib/qei.o
 .debug_frame   0x00002b6c      0x1d8 ./driverlib/shamd5.o
 .debug_frame   0x00002d44      0x1c4 ./driverlib/ssi.o
 .debug_frame   0x00002f08       0xac ./driverlib/sw_crc.o
 .debug_frame   0x00002fb4      0x414 ./driverlib/sysctl.o
 .debug_frame   0x000033c8       0x94 ./driverlib/sysexc.o
 .debug_frame   0x0000345c       0xb0 ./driverlib/systick.o
 .debug_frame   0x0000350c      0x2b0 ./driverlib/timer.o
 .debug_frame   0x000037bc      0x360 ./driverlib/uart.o
 .debug_frame   0x00003b1c      0x1f0 ./driverlib/udma.o
 .debug_frame   0x00003d0c      0x738 ./driverlib/usb.o
 .debug_frame   0x00004444      0x140 ./driverlib/watchdog.o
 .debug_frame   0x00004584       0x40 ./utils/random.o
 .debug_frame   0x000045c4       0xdc ./utils/uartstdio.o
 .debug_frame   0x000046a0      0x220 ./utils/ustdlib.o
 .debug_frame   0x000048c0       0x7f ../driverlib/ccs/Debug/driverlib.lib(cpu.obj)
 .debug_frame   0x0000493f       0x7f ../driverlib/ccs/Debug/driverlib.lib(cpu.obj)
 .debug_frame   0x000049be       0x7f ../driverlib/ccs/Debug/driverlib.lib(cpu.obj)
 .debug_frame   0x00004a3d       0x7f ../driverlib/ccs/Debug/driverlib.lib(cpu.obj)
 .debug_frame   0x00004abc       0x7f ../driverlib/ccs/Debug/driverlib.lib(cpu.obj)
 .debug_frame   0x00004b3b       0x7f ../driverlib/ccs/Debug/driverlib.lib(cpu.obj)
 .debug_frame   0x00004bba       0x7f ../driverlib/ccs/Debug/driverlib.lib(sysctl.obj)
 .debug_frame   0x00004c39       0x7f ../driverlib/ccs/Debug/driverlib.lib(sysctl.obj)
 .debug_frame   0x00004cb8       0x7f ../driverlib/ccs/Debug/driverlib.lib(sysctl.obj)
 .debug_frame   0x00004d37       0x8a ../driverlib/ccs/Debug/driverlib.lib(sysctl.obj)
 .debug_frame   0x00004dc1       0x7f ../driverlib/ccs/Debug/driverlib.lib(sysctl.obj)
 .debug_frame   0x00004e40       0x7f ../driverlib/ccs/Debug/driverlib.lib(sysctl.obj)
 .debug_frame   0x00004ebf       0x7f ../driverlib/ccs/Debug/driverlib.lib(sysctl.obj)
 .debug_frame   0x00004f3e       0x7f ../driverlib/ccs/Debug/driverlib.lib(sysctl.obj)
 .debug_frame   0x00004fbd       0x7f ../driverlib/ccs/Debug/driverlib.lib(sysctl.obj)
 .debug_frame   0x0000503c       0x7f ../driverlib/ccs/Debug/driverlib.lib(sysctl.obj)
 .debug_frame   0x000050bb       0x7f ../driverlib/ccs/Debug/driverlib.lib(sysctl.obj)
 .debug_frame   0x0000513a       0x7f ../driverlib/ccs/Debug/driverlib.lib(sysctl.obj)
 .debug_frame   0x000051b9       0x7f ../driverlib/ccs/Debug/driverlib.lib(sysctl.obj)
 .debug_frame   0x00005238       0x7f ../driverlib/ccs/Debug/driverlib.lib(sysctl.obj)
 .debug_frame   0x000052b7       0x7f ../driverlib/ccs/Debug/driverlib.lib(sysctl.obj)
 .debug_frame   0x00005336       0x7f ../driverlib/ccs/Debug/driverlib.lib(sysctl.obj)
 .debug_frame   0x000053b5       0x85 ../driverlib/ccs/Debug/driverlib.lib(sysctl.obj)
 .debug_frame   0x0000543a       0x7f ../driverlib/ccs/Debug/driverlib.lib(sysctl.obj)
 .debug_frame   0x000054b9       0x7f ../driverlib/ccs/Debug/driverlib.lib(sysctl.obj)
 .debug_frame   0x00005538       0x7f ../driverlib/ccs/Debug/driverlib.lib(sysctl.obj)
 .debug_frame   0x000055b7       0x7f ../driverlib/ccs/Debug/driverlib.lib(sysctl.obj)
 .debug_frame   0x00005636       0x7f ../driverlib/ccs/Debug/driverlib.lib(sysctl.obj)
 .debug_frame   0x000056b5       0x7f ../driverlib/ccs/Debug/driverlib.lib(sysctl.obj)
 .debug_frame   0x00005734       0x7f ../driverlib/ccs/Debug/driverlib.lib(sysctl.obj)
 .debug_frame   0x000057b3       0x7f ../driverlib/ccs/Debug/driverlib.lib(sysctl.obj)
 .debug_frame   0x00005832       0x8a ../driverlib/ccs/Debug/driverlib.lib(sysctl.obj)
 .debug_frame   0x000058bc       0x7f ../driverlib/ccs/Debug/driverlib.lib(sysctl.obj)
 .debug_frame   0x0000593b       0x7f ../driverlib/ccs/Debug/driverlib.lib(sysctl.obj)
 .debug_frame   0x000059ba       0x7f ../driverlib/ccs/Debug/driverlib.lib(sysctl.obj)
 .debug_frame   0x00005a39       0x7f ../driverlib/ccs/Debug/driverlib.lib(sysctl.obj)
 .debug_frame   0x00005ab8       0x7f ../driverlib/ccs/Debug/driverlib.lib(sysctl.obj)
 .debug_frame   0x00005b37       0x7f ../driverlib/ccs/Debug/driverlib.lib(sysctl.obj)
 .debug_frame   0x00005bb6       0x7f ../driverlib/ccs/Debug/driverlib.lib(sysctl.obj)
 .debug_frame   0x00005c35       0x7f ../driverlib/ccs/Debug/driverlib.lib(sysctl.obj)
 .debug_frame   0x00005cb4       0x7f ../driverlib/ccs/Debug/driverlib.lib(sysctl.obj)
 .debug_frame   0x00005d33       0x7f ../driverlib/ccs/Debug/driverlib.lib(sysctl.obj)
 .debug_frame   0x00005db2       0x86 ../driverlib/ccs/Debug/driverlib.lib(sysctl.obj)
 .debug_frame   0x00005e38       0x7f ../driverlib/ccs/Debug/driverlib.lib(sysctl.obj)
 .debug_frame   0x00005eb7       0x86 ../driverlib/ccs/Debug/driverlib.lib(sysctl.obj)
 .debug_frame   0x00005f3d       0x7f ../driverlib/ccs/Debug/driverlib.lib(sysctl.obj)
 .debug_frame   0x00005fbc       0x7f ../driverlib/ccs/Debug/driverlib.lib(sysctl.obj)
 .debug_frame   0x0000603b       0x7f ../driverlib/ccs/Debug/driverlib.lib(sysctl.obj)
 .debug_frame   0x000060ba       0x7f ../driverlib/ccs/Debug/driverlib.lib(sysctl.obj)
 .debug_frame   0x00006139       0x7f ../driverlib/ccs/Debug/driverlib.lib(sysctl.obj)
 .debug_frame   0x000061b8       0x7f ../driverlib/ccs/Debug/driverlib.lib(sysctl.obj)
 .debug_frame   0x00006237       0x83 ../driverlib/ccs/Debug/driverlib.lib(sysctl.obj)
 .debug_frame   0x000062ba       0x7f ../driverlib/ccs/Debug/driverlib.lib(sysctl.obj)
 .debug_frame   0x00006339       0x7f ../driverlib/ccs/Debug/driverlib.lib(sysctl.obj)
 .debug_frame   0x000063b8       0x8a ../driverlib/ccs/Debug/driverlib.lib(sysctl.obj)
 .debug_frame   0x00006442       0x86 ../driverlib/ccs/Debug/driverlib.lib(sysctl.obj)
 .debug_frame   0x000064c8       0x93 ../driverlib/ccs/Debug/driverlib.lib(sysctl.obj)
 .debug_frame   0x0000655b       0x7f ../driverlib/ccs/Debug/driverlib.lib(sysctl.obj)
 .debug_frame   0x000065da       0x8e ../driverlib/ccs/Debug/driverlib.lib(sysctl.obj)
 .debug_frame   0x00006668       0x7f ../driverlib/ccs/Debug/driverlib.lib(sysctl.obj)
 .debug_frame   0x000066e7       0x8a ../driverlib/ccs/Debug/driverlib.lib(sysctl.obj)
 .debug_frame   0x00006771       0x98 ../driverlib/ccs/Debug/driverlib.lib(sysctl.obj)
 .debug_frame   0x00006809       0x7f ../driverlib/ccs/Debug/driverlib.lib(sysctl.obj)
 .debug_frame   0x00006888       0x44 c:/ti/ccs1020/ccs/tools/compiler/gcc-arm-none-eabi-9-2019-q4-major/bin/../lib/gcc/arm-none-eabi/9.2.1/thumb/v7e-m/nofp\libgcc.a(_aeabi_ldivmod.o)
 .debug_frame   0x000068cc       0x34 c:/ti/ccs1020/ccs/tools/compiler/gcc-arm-none-eabi-9-2019-q4-major/bin/../lib/gcc/arm-none-eabi/9.2.1/thumb/v7e-m/nofp\libgcc.a(_udivmoddi4.o)
 .debug_frame   0x00006900      0x2e4 c:/ti/ccs1020/ccs/tools/compiler/gcc-arm-none-eabi-9-2019-q4-major/bin/../lib/gcc/arm-none-eabi/9.2.1/thumb/v7e-m/nofp\libgcc.a(unwind-arm.o)
 .debug_frame   0x00006be4      0x104 c:/ti/ccs1020/ccs/tools/compiler/gcc-arm-none-eabi-9-2019-q4-major/bin/../lib/gcc/arm-none-eabi/9.2.1/thumb/v7e-m/nofp\libgcc.a(pr-support.o)
 .debug_frame   0x00006ce8       0x28 c:/ti/ccs1020/ccs/tools/compiler/gcc-arm-none-eabi-9-2019-q4-major/bin/../lib/gcc/arm-none-eabi/9.2.1/../../../../arm-none-eabi/lib/thumb/v7e-m/nofp\libg.a(lib_a-abort.o)
 .debug_frame   0x00006d10       0x28 c:/ti/ccs1020/ccs/tools/compiler/gcc-arm-none-eabi-9-2019-q4-major/bin/../lib/gcc/arm-none-eabi/9.2.1/../../../../arm-none-eabi/lib/thumb/v7e-m/nofp\libg.a(lib_a-exit.o)
 .debug_frame   0x00006d38       0x2c c:/ti/ccs1020/ccs/tools/compiler/gcc-arm-none-eabi-9-2019-q4-major/bin/../lib/gcc/arm-none-eabi/9.2.1/../../../../arm-none-eabi/lib/thumb/v7e-m/nofp\libg.a(lib_a-init.o)
 .debug_frame   0x00006d64       0x38 c:/ti/ccs1020/ccs/tools/compiler/gcc-arm-none-eabi-9-2019-q4-major/bin/../lib/gcc/arm-none-eabi/9.2.1/../../../../arm-none-eabi/lib/thumb/v7e-m/nofp\libg.a(lib_a-memset.o)
 .debug_frame   0x00006d9c       0xe0 c:/ti/ccs1020/ccs/tools/compiler/gcc-arm-none-eabi-9-2019-q4-major/bin/../lib/gcc/arm-none-eabi/9.2.1/../../../../arm-none-eabi/lib/thumb/v7e-m/nofp\libg.a(lib_a-signal.o)
 .debug_frame   0x00006e7c       0x3c c:/ti/ccs1020/ccs/tools/compiler/gcc-arm-none-eabi-9-2019-q4-major/bin/../lib/gcc/arm-none-eabi/9.2.1/../../../../arm-none-eabi/lib/thumb/v7e-m/nofp\libg.a(lib_a-signalr.o)
 .debug_frame   0x00006eb8       0x5c c:/ti/ccs1020/ccs/tools/compiler/gcc-arm-none-eabi-9-2019-q4-major/bin/../lib/gcc/arm-none-eabi/9.2.1/../../../../arm-none-eabi/lib/thumb/v7e-m/nofp\libg.a(lib_a-__call_atexit.o)
 .debug_frame   0x00006f14       0x20 c:/ti/ccs1020/ccs/tools/compiler/gcc-arm-none-eabi-9-2019-q4-major/bin/../lib/gcc/arm-none-eabi/9.2.1/../../../../arm-none-eabi/lib/thumb/v7e-m/nofp\libg.a(lib_a-atexit.o)
 .debug_frame   0x00006f34       0x34 c:/ti/ccs1020/ccs/tools/compiler/gcc-arm-none-eabi-9-2019-q4-major/bin/../lib/gcc/arm-none-eabi/9.2.1/../../../../arm-none-eabi/lib/thumb/v7e-m/nofp\libg.a(lib_a-fini.o)
 .debug_frame   0x00006f68       0xb0 c:/ti/ccs1020/ccs/tools/compiler/gcc-arm-none-eabi-9-2019-q4-major/bin/../lib/gcc/arm-none-eabi/9.2.1/../../../../arm-none-eabi/lib/thumb/v7e-m/nofp\libg.a(lib_a-lock.o)
 .debug_frame   0x00007018       0x4c c:/ti/ccs1020/ccs/tools/compiler/gcc-arm-none-eabi-9-2019-q4-major/bin/../lib/gcc/arm-none-eabi/9.2.1/../../../../arm-none-eabi/lib/thumb/v7e-m/nofp\libg.a(lib_a-mallocr.o)
 .debug_frame   0x00007064       0x30 c:/ti/ccs1020/ccs/tools/compiler/gcc-arm-none-eabi-9-2019-q4-major/bin/../lib/gcc/arm-none-eabi/9.2.1/../../../../arm-none-eabi/lib/thumb/v7e-m/nofp\libg.a(lib_a-mlock.o)
 .debug_frame   0x00007094       0x60 c:/ti/ccs1020/ccs/tools/compiler/gcc-arm-none-eabi-9-2019-q4-major/bin/../lib/gcc/arm-none-eabi/9.2.1/../../../../arm-none-eabi/lib/thumb/v7e-m/nofp\libg.a(lib_a-reent.o)
 .debug_frame   0x000070f4       0x2c c:/ti/ccs1020/ccs/tools/compiler/gcc-arm-none-eabi-9-2019-q4-major/bin/../lib/gcc/arm-none-eabi/9.2.1/../../../../arm-none-eabi/lib/thumb/v7e-m/nofp\libg.a(lib_a-sbrkr.o)
 .debug_frame   0x00007120       0x34 c:/ti/ccs1020/ccs/tools/compiler/gcc-arm-none-eabi-9-2019-q4-major/bin/../lib/gcc/arm-none-eabi/9.2.1/../../../../arm-none-eabi/lib/thumb/v7e-m/nofp\libg.a(lib_a-__atexit.o)
 .debug_frame   0x00007154       0x8c c:/ti/ccs1020/ccs/tools/compiler/gcc-arm-none-eabi-9-2019-q4-major/bin/../lib/gcc/arm-none-eabi/9.2.1/../../../../arm-none-eabi/lib/thumb/v7e-m/nofp\libg.a(lib_a-freer.o)
 .debug_frame   0x000071e0       0x20 c:/ti/ccs1020/ccs/tools/compiler/gcc-arm-none-eabi-9-2019-q4-major/bin/../lib/gcc/arm-none-eabi/9.2.1/../../../../arm-none-eabi/lib/thumb/v7e-m/nofp\libnosys.a(getpid.o)
 .debug_frame   0x00007200       0x20 c:/ti/ccs1020/ccs/tools/compiler/gcc-arm-none-eabi-9-2019-q4-major/bin/../lib/gcc/arm-none-eabi/9.2.1/../../../../arm-none-eabi/lib/thumb/v7e-m/nofp\libnosys.a(kill.o)
 .debug_frame   0x00007220       0x20 c:/ti/ccs1020/ccs/tools/compiler/gcc-arm-none-eabi-9-2019-q4-major/bin/../lib/gcc/arm-none-eabi/9.2.1/../../../../arm-none-eabi/lib/thumb/v7e-m/nofp\libnosys.a(sbrk.o)
 .debug_frame   0x00007240       0x20 c:/ti/ccs1020/ccs/tools/compiler/gcc-arm-none-eabi-9-2019-q4-major/bin/../lib/gcc/arm-none-eabi/9.2.1/../../../../arm-none-eabi/lib/thumb/v7e-m/nofp\libnosys.a(_exit.o)

.debug_loc      0x00000000     0x84d1
 .debug_loc     0x00000000       0x3c ./tm4c129encpdt_startup_ccs_gcc.o
 .debug_loc     0x0000003c      0x677 ./driverlib/adc.o
 .debug_loc     0x000006b3      0x319 ./driverlib/aes.o
 .debug_loc     0x000009cc      0x7d8 ./driverlib/can.o
 .debug_loc     0x000011a4       0xb9 ./driverlib/comp.o
 .debug_loc     0x0000125d       0xbf ./driverlib/crc.o
 .debug_loc     0x0000131c      0x1d7 ./driverlib/des.o
 .debug_loc     0x000014f3      0x305 ./driverlib/eeprom.o
 .debug_loc     0x000017f8      0x897 ./driverlib/emac.o
 .debug_loc     0x0000208f      0x2d3 ./driverlib/flash.o
 .debug_loc     0x00002362      0xa22 ./driverlib/gpio.o
 .debug_loc     0x00002d84      0x551 ./driverlib/hibernate.o
 .debug_loc     0x000032d5      0x39f ./driverlib/i2c.o
 .debug_loc     0x00003674      0x1a4 ./driverlib/interrupt.o
 .debug_loc     0x00003818      0x462 ./driverlib/lcd.o
 .debug_loc     0x00003c7a       0x57 ./driverlib/mpu.o
 .debug_loc     0x00003cd1      0x1bb ./driverlib/onewire.o
 .debug_loc     0x00003e8c      0x662 ./driverlib/pwm.o
 .debug_loc     0x000044ee      0x147 ./driverlib/qei.o
 .debug_loc     0x00004635      0x42f ./driverlib/shamd5.o
 .debug_loc     0x00004a64      0x276 ./driverlib/ssi.o
 .debug_loc     0x00004cda      0x3fe ./driverlib/sw_crc.o
 .debug_loc     0x000050d8      0x7dc ./driverlib/sysctl.o
 .debug_loc     0x000058b4       0x78 ./driverlib/sysexc.o
 .debug_loc     0x0000592c       0x31 ./driverlib/systick.o
 .debug_loc     0x0000595d      0x3eb ./driverlib/timer.o
 .debug_loc     0x00005d48      0x39a ./driverlib/uart.o
 .debug_loc     0x000060e2      0x3a4 ./driverlib/udma.o
 .debug_loc     0x00006486     0x105c ./driverlib/usb.o
 .debug_loc     0x000074e2       0xa3 ./driverlib/watchdog.o
 .debug_loc     0x00007585      0x17a ./utils/random.o
 .debug_loc     0x000076ff      0x31c ./utils/uartstdio.o
 .debug_loc     0x00007a1b      0xab6 ./utils/ustdlib.o

.debug_pubnames
                0x00000000      0xaec
 .debug_pubnames
                0x00000000       0x1d ../driverlib/ccs/Debug/driverlib.lib(cpu.obj)
 .debug_pubnames
                0x0000001d       0x21 ../driverlib/ccs/Debug/driverlib.lib(cpu.obj)
 .debug_pubnames
                0x0000003e       0x1f ../driverlib/ccs/Debug/driverlib.lib(cpu.obj)
 .debug_pubnames
                0x0000005d       0x1f ../driverlib/ccs/Debug/driverlib.lib(cpu.obj)
 .debug_pubnames
                0x0000007c       0x24 ../driverlib/ccs/Debug/driverlib.lib(cpu.obj)
 .debug_pubnames
                0x000000a0       0x24 ../driverlib/ccs/Debug/driverlib.lib(cpu.obj)
 .debug_pubnames
                0x000000c4       0x23 ../driverlib/ccs/Debug/driverlib.lib(sysctl.obj)
 .debug_pubnames
                0x000000e7       0x29 ../driverlib/ccs/Debug/driverlib.lib(sysctl.obj)
 .debug_pubnames
                0x00000110       0x26 ../driverlib/ccs/Debug/driverlib.lib(sysctl.obj)
 .debug_pubnames
                0x00000136       0x2c ../driverlib/ccs/Debug/driverlib.lib(sysctl.obj)
 .debug_pubnames
                0x00000162       0x2f ../driverlib/ccs/Debug/driverlib.lib(sysctl.obj)
 .debug_pubnames
                0x00000191       0x2f ../driverlib/ccs/Debug/driverlib.lib(sysctl.obj)
 .debug_pubnames
                0x000001c0       0x2e ../driverlib/ccs/Debug/driverlib.lib(sysctl.obj)
 .debug_pubnames
                0x000001ee       0x23 ../driverlib/ccs/Debug/driverlib.lib(sysctl.obj)
 .debug_pubnames
                0x00000211       0x29 ../driverlib/ccs/Debug/driverlib.lib(sysctl.obj)
 .debug_pubnames
                0x0000023a       0x2a ../driverlib/ccs/Debug/driverlib.lib(sysctl.obj)
 .debug_pubnames
                0x00000264       0x2a ../driverlib/ccs/Debug/driverlib.lib(sysctl.obj)
 .debug_pubnames
                0x0000028e       0x22 ../driverlib/ccs/Debug/driverlib.lib(sysctl.obj)
 .debug_pubnames
                0x000002b0       0x28 ../driverlib/ccs/Debug/driverlib.lib(sysctl.obj)
 .debug_pubnames
                0x000002d8       0x2a ../driverlib/ccs/Debug/driverlib.lib(sysctl.obj)
 .debug_pubnames
                0x00000302       0x2c ../driverlib/ccs/Debug/driverlib.lib(sysctl.obj)
 .debug_pubnames
                0x0000032e       0x2d ../driverlib/ccs/Debug/driverlib.lib(sysctl.obj)
 .debug_pubnames
                0x0000035b       0x2d ../driverlib/ccs/Debug/driverlib.lib(sysctl.obj)
 .debug_pubnames
                0x00000388       0x22 ../driverlib/ccs/Debug/driverlib.lib(sysctl.obj)
 .debug_pubnames
                0x000003aa       0x32 ../driverlib/ccs/Debug/driverlib.lib(sysctl.obj)
 .debug_pubnames
                0x000003dc       0x33 ../driverlib/ccs/Debug/driverlib.lib(sysctl.obj)
 .debug_pubnames
                0x0000040f       0x2c ../driverlib/ccs/Debug/driverlib.lib(sysctl.obj)
 .debug_pubnames
                0x0000043b       0x2c ../driverlib/ccs/Debug/driverlib.lib(sysctl.obj)
 .debug_pubnames
                0x00000467       0x2e ../driverlib/ccs/Debug/driverlib.lib(sysctl.obj)
 .debug_pubnames
                0x00000495       0x2e ../driverlib/ccs/Debug/driverlib.lib(sysctl.obj)
 .debug_pubnames
                0x000004c3       0x2f ../driverlib/ccs/Debug/driverlib.lib(sysctl.obj)
 .debug_pubnames
                0x000004f2       0x2d ../driverlib/ccs/Debug/driverlib.lib(sysctl.obj)
 .debug_pubnames
                0x0000051f       0x2e ../driverlib/ccs/Debug/driverlib.lib(sysctl.obj)
 .debug_pubnames
                0x0000054d       0x36 ../driverlib/ccs/Debug/driverlib.lib(sysctl.obj)
 .debug_pubnames
                0x00000583       0x37 ../driverlib/ccs/Debug/driverlib.lib(sysctl.obj)
 .debug_pubnames
                0x000005ba       0x32 ../driverlib/ccs/Debug/driverlib.lib(sysctl.obj)
 .debug_pubnames
                0x000005ec       0x28 ../driverlib/ccs/Debug/driverlib.lib(sysctl.obj)
 .debug_pubnames
                0x00000614       0x28 ../driverlib/ccs/Debug/driverlib.lib(sysctl.obj)
 .debug_pubnames
                0x0000063c       0x2b ../driverlib/ccs/Debug/driverlib.lib(sysctl.obj)
 .debug_pubnames
                0x00000667       0x26 ../driverlib/ccs/Debug/driverlib.lib(sysctl.obj)
 .debug_pubnames
                0x0000068d       0x25 ../driverlib/ccs/Debug/driverlib.lib(sysctl.obj)
 .debug_pubnames
                0x000006b2       0x2a ../driverlib/ccs/Debug/driverlib.lib(sysctl.obj)
 .debug_pubnames
                0x000006dc       0x28 ../driverlib/ccs/Debug/driverlib.lib(sysctl.obj)
 .debug_pubnames
                0x00000704       0x28 ../driverlib/ccs/Debug/driverlib.lib(sysctl.obj)
 .debug_pubnames
                0x0000072c       0x2c ../driverlib/ccs/Debug/driverlib.lib(sysctl.obj)
 .debug_pubnames
                0x00000758       0x2c ../driverlib/ccs/Debug/driverlib.lib(sysctl.obj)
 .debug_pubnames
                0x00000784       0x2a ../driverlib/ccs/Debug/driverlib.lib(sysctl.obj)
 .debug_pubnames
                0x000007ae       0x26 ../driverlib/ccs/Debug/driverlib.lib(sysctl.obj)
 .debug_pubnames
                0x000007d4       0x28 ../driverlib/ccs/Debug/driverlib.lib(sysctl.obj)
 .debug_pubnames
                0x000007fc       0x26 ../driverlib/ccs/Debug/driverlib.lib(sysctl.obj)
 .debug_pubnames
                0x00000822       0x27 ../driverlib/ccs/Debug/driverlib.lib(sysctl.obj)
 .debug_pubnames
                0x00000849       0x25 ../driverlib/ccs/Debug/driverlib.lib(sysctl.obj)
 .debug_pubnames
                0x0000086e       0x2a ../driverlib/ccs/Debug/driverlib.lib(sysctl.obj)
 .debug_pubnames
                0x00000898       0x2b ../driverlib/ccs/Debug/driverlib.lib(sysctl.obj)
 .debug_pubnames
                0x000008c3       0x29 ../driverlib/ccs/Debug/driverlib.lib(sysctl.obj)
 .debug_pubnames
                0x000008ec       0x2f ../driverlib/ccs/Debug/driverlib.lib(sysctl.obj)
 .debug_pubnames
                0x0000091b       0x2e ../driverlib/ccs/Debug/driverlib.lib(sysctl.obj)
 .debug_pubnames
                0x00000949       0x2e ../driverlib/ccs/Debug/driverlib.lib(sysctl.obj)
 .debug_pubnames
                0x00000977       0x34 ../driverlib/ccs/Debug/driverlib.lib(sysctl.obj)
 .debug_pubnames
                0x000009ab       0x26 ../driverlib/ccs/Debug/driverlib.lib(sysctl.obj)
 .debug_pubnames
                0x000009d1       0x25 ../driverlib/ccs/Debug/driverlib.lib(sysctl.obj)
 .debug_pubnames
                0x000009f6       0x2b ../driverlib/ccs/Debug/driverlib.lib(sysctl.obj)
 .debug_pubnames
                0x00000a21       0x25 ../driverlib/ccs/Debug/driverlib.lib(sysctl.obj)
 .debug_pubnames
                0x00000a46       0x2a ../driverlib/ccs/Debug/driverlib.lib(sysctl.obj)
 .debug_pubnames
                0x00000a70       0x2a ../driverlib/ccs/Debug/driverlib.lib(sysctl.obj)
 .debug_pubnames
                0x00000a9a       0x29 ../driverlib/ccs/Debug/driverlib.lib(sysctl.obj)
 .debug_pubnames
                0x00000ac3       0x29 ../driverlib/ccs/Debug/driverlib.lib(sysctl.obj)

.debug_pubtypes
                0x00000000      0x4c0
 .debug_pubtypes
                0x00000000       0xed ../driverlib/ccs/Debug/driverlib.lib(cpu.obj)
 .debug_pubtypes
                0x000000ed      0x1c6 ../driverlib/ccs/Debug/driverlib.lib(cpu.obj)
 .debug_pubtypes
                0x000002b3       0x28 ../driverlib/ccs/Debug/driverlib.lib(cpu.obj)
 .debug_pubtypes
                0x000002db       0x28 ../driverlib/ccs/Debug/driverlib.lib(sysctl.obj)
 .debug_pubtypes
                0x00000303       0xff ../driverlib/ccs/Debug/driverlib.lib(sysctl.obj)
 .debug_pubtypes
                0x00000402       0x92 ../driverlib/ccs/Debug/driverlib.lib(sysctl.obj)
 .debug_pubtypes
                0x00000494       0x2c ../driverlib/ccs/Debug/driverlib.lib(sysctl.obj)

.stab           0x00000000       0x3c
 .stab          0x00000000       0x24 c:/ti/ccs1020/ccs/tools/compiler/gcc-arm-none-eabi-9-2019-q4-major/bin/../lib/gcc/arm-none-eabi/9.2.1/../../../../arm-none-eabi/lib/thumb/v7e-m/nofp\libnosys.a(getpid.o)
 .stab          0x00000024       0x18 c:/ti/ccs1020/ccs/tools/compiler/gcc-arm-none-eabi-9-2019-q4-major/bin/../lib/gcc/arm-none-eabi/9.2.1/../../../../arm-none-eabi/lib/thumb/v7e-m/nofp\libnosys.a(kill.o)
                                 0x24 (size before relaxing)

.stabstr        0x00000000       0x76
 .stabstr       0x00000000       0x76 c:/ti/ccs1020/ccs/tools/compiler/gcc-arm-none-eabi-9-2019-q4-major/bin/../lib/gcc/arm-none-eabi/9.2.1/../../../../arm-none-eabi/lib/thumb/v7e-m/nofp\libnosys.a(getpid.o)
